Certificate:
    Data:
        Version: 3 (0x2)
        Serial Number:
            35:7b:7f:67:9f:27:27:11:50:1b:96:89:61:ee:52:80
        Signature Algorithm: sha1WithRSAEncryption
        Issuer: C=US, ST=Massachusetts, O=Massachusetts Institute of Technology, OU=MIT Certification Authority
        Validity
            Not Before: Sep 13 16:00:00 2009 GMT
            Not After : Sep 14 16:00:00 2010 GMT
        Subject: C=US, ST=Massachusetts, L=Cambridge, O=Massachusetts Institute of Technology, OU=Student Information Processing Board, CN=ai6034.mit.edu/emailAddress=scripts@mit.edu
        Subject Public Key Info:
            Public Key Algorithm: rsaEncryption
            RSA Public Key: (1024 bit)
                Modulus (1024 bit):
                    00:b5:3e:21:4d:c1:89:6b:01:8c:47:80:fe:b3:37:
                    27:76:f8:52:41:e6:a2:3d:4b:76:78:e5:f2:66:3c:
                    0f:b1:ad:fb:97:8f:2e:a2:b6:53:d3:b6:0e:e2:66:
                    f9:b9:0b:b7:ce:b4:d5:f5:1c:1f:6f:22:7d:48:f5:
                    6d:f0:16:cd:8e:48:79:d1:14:4a:14:2f:2f:f8:c4:
                    bd:1d:87:cf:7d:8b:5c:77:ad:58:24:b0:0e:a1:6d:
                    d6:0a:c7:d8:bc:2f:67:65:c8:5d:d8:d8:31:c2:67:
                    4b:4a:f4:a1:a5:54:82:af:cb:34:08:2a:04:7f:8e:
                    7c:4c:b7:db:dc:6a:8a:5d:81
                Exponent: 65537 (0x10001)
        X509v3 extensions:
            X509v3 Basic Constraints: 
                CA:FALSE
            Netscape Cert Type: 
                SSL Client, SSL Server, S/MIME
            X509v3 Extended Key Usage: 
                TLS Web Server Authentication, E-mail Protection, TLS Web Client Authentication
            X509v3 Key Usage: 
                Digital Signature, Non Repudiation, Key Encipherment
            X509v3 Subject Key Identifier: 
                54:11:7C:09:55:44:1C:94:45:A9:A2:76:46:2B:2C:24:26:6A:44:E8
            X509v3 CRL Distribution Points: 
                URI:http://ca.mit.edu/ca/mitserver.crl

    Signature Algorithm: sha1WithRSAEncryption
        13:7d:30:02:4a:b2:73:bc:88:03:7e:45:36:1b:71:46:e6:16:
        ca:b1:97:a7:d0:96:67:cb:c4:ab:57:5f:b3:4e:6d:c8:a5:8e:
        df:8f:ed:4d:d1:f6:bd:81:f1:41:6c:f5:16:57:2c:b1:b7:df:
        1e:e1:6f:ff:ca:1a:82:8d:2c:cb:70:fb:7a:fb:e2:4b:ea:c4:
        44:dd:63:a0:b6:af:af:be:5a:28:9f:40:01:fc:f5:b9:13:1e:
        83:5c:8a:5a:80:34:06:21:06:76:98:22:5b:ca:5e:02:76:bd:
        94:b0:71:07:c0:9f:e9:27:e4:27:82:d3:9b:2b:a2:86:09:56:
        ab:9b
-----BEGIN CERTIFICATE-----
MIIDfjCCAuegAwIBAgIQNXt/Z58nJxFQG5aJYe5SgDANBgkqhkiG9w0BAQUFADB7
MQswCQYDVQQGEwJVUzEWMBQGA1UECBMNTWFzc2FjaHVzZXR0czEuMCwGA1UEChMl
TWFzc2FjaHVzZXR0cyBJbnN0aXR1dGUgb2YgVGVjaG5vbG9neTEkMCIGA1UECxMb
TUlUIENlcnRpZmljYXRpb24gQXV0aG9yaXR5MB4XDTA5MDkxMzE2MDAwMFoXDTEw
MDkxNDE2MDAwMFowgdExCzAJBgNVBAYTAlVTMRYwFAYDVQQIEw1NYXNzYWNodXNl
dHRzMRIwEAYDVQQHEwlDYW1icmlkZ2UxLjAsBgNVBAoTJU1hc3NhY2h1c2V0dHMg
SW5zdGl0dXRlIG9mIFRlY2hub2xvZ3kxLTArBgNVBAsTJFN0dWRlbnQgSW5mb3Jt
YXRpb24gUHJvY2Vzc2luZyBCb2FyZDEXMBUGA1UEAxMOYWk2MDM0Lm1pdC5lZHUx
HjAcBgkqhkiG9w0BCQEWD3NjcmlwdHNAbWl0LmVkdTCBnzANBgkqhkiG9w0BAQEF
AAOBjQAwgYkCgYEAtT4hTcGJawGMR4D+szcndvhSQeaiPUt2eOXyZjwPsa37l48u
orZT07YO4mb5uQu3zrTV9RwfbyJ9SPVt8BbNjkh50RRKFC8v+MS9HYfPfYtcd61Y
JLAOoW3WCsfYvC9nZchd2NgxwmdLSvShpVSCr8s0CCoEf458TLfb3GqKXYECAwEA
AaOBqzCBqDAJBgNVHRMEAjAAMBEGCWCGSAGG+EIBAQQEAwIF4DAnBgNVHSUEIDAe
BggrBgEFBQcDAQYIKwYBBQUHAwQGCCsGAQUFBwMCMAsGA1UdDwQEAwIF4DAdBgNV
HQ4EFgQUVBF8CVVEHJRFqaJ2RissJCZqROgwMwYDVR0fBCwwKjAooCagJIYiaHR0
cDovL2NhLm1pdC5lZHUvY2EvbWl0c2VydmVyLmNybDANBgkqhkiG9w0BAQUFAAOB
gQATfTACSrJzvIgDfkU2G3FG5hbKsZen0JZny8SrV1+zTm3IpY7fj+1N0fa9gfFB
bPUWVyyxt98e4W//yhqCjSzLcPt6++JL6sRE3WOgtq+vvloon0AB/PW5Ex6DXIpa
gDQGIQZ2mCJbyl4Cdr2UsHEHwJ/pJ+QngtObK6KGCVarmw==
-----END CERTIFICATE-----

