From mitcert@MIT.EDU Mon Apr 19 21:53:47 2010
Date: Mon, 19 Apr 2010 21:53:46 -0400 (EDT)
From: mitcert@MIT.EDU
To: mitchb@mit.edu
Subject: Certificate signing request for asa.mit.edu  [help.mit.edu #1212392]

Certificate:
    Data:
        Version: 3 (0x2)
        Serial Number:
            99:d7:16:08:8d:11:9a:7d:c8:00:62:9a:35:3c:ca:ac
        Signature Algorithm: sha1WithRSAEncryption
        Issuer: C=US, ST=Massachusetts, O=Massachusetts Institute of Technology, OU=MIT Certification Authority
        Validity
            Not Before: Apr 18 16:00:00 2010 GMT
            Not After : Apr 19 16:00:00 2011 GMT
        Subject: C=US, ST=Massachusetts, L=Cambridge, O=Massachusetts Institute of Technology, OU=scripts.mit.edu web hosting service, CN=asa.mit.edu/emailAddress=scripts@mit.edu
        Subject Public Key Info:
            Public Key Algorithm: rsaEncryption
            RSA Public Key: (1024 bit)
                Modulus (1024 bit):
                    00:b5:3e:21:4d:c1:89:6b:01:8c:47:80:fe:b3:37:
                    27:76:f8:52:41:e6:a2:3d:4b:76:78:e5:f2:66:3c:
                    0f:b1:ad:fb:97:8f:2e:a2:b6:53:d3:b6:0e:e2:66:
                    f9:b9:0b:b7:ce:b4:d5:f5:1c:1f:6f:22:7d:48:f5:
                    6d:f0:16:cd:8e:48:79:d1:14:4a:14:2f:2f:f8:c4:
                    bd:1d:87:cf:7d:8b:5c:77:ad:58:24:b0:0e:a1:6d:
                    d6:0a:c7:d8:bc:2f:67:65:c8:5d:d8:d8:31:c2:67:
                    4b:4a:f4:a1:a5:54:82:af:cb:34:08:2a:04:7f:8e:
                    7c:4c:b7:db:dc:6a:8a:5d:81
                Exponent: 65537 (0x10001)
        X509v3 extensions:
            X509v3 Basic Constraints: 
                CA:FALSE
            Netscape Cert Type: 
                SSL Client, SSL Server, S/MIME
            X509v3 Extended Key Usage: 
                TLS Web Server Authentication, E-mail Protection, TLS Web Client Authentication
            X509v3 Key Usage: 
                Digital Signature, Non Repudiation, Key Encipherment
            X509v3 Subject Key Identifier: 
                54:11:7C:09:55:44:1C:94:45:A9:A2:76:46:2B:2C:24:26:6A:44:E8
            X509v3 CRL Distribution Points: 
                URI:http://ca.mit.edu/ca/mitserver.crl

    Signature Algorithm: sha1WithRSAEncryption
        51:4f:a4:e3:32:3c:84:3c:35:ef:6a:66:2c:01:74:85:a4:4a:
        f9:98:7b:24:81:38:21:f4:f3:b7:6d:2e:70:62:54:93:9e:13:
        21:a6:37:42:fc:ff:e2:7d:23:2b:7a:85:23:b9:1c:b6:0f:ba:
        4d:45:e6:9f:e8:3f:aa:ed:1d:9f:11:ea:ca:aa:e2:fb:16:d5:
        e0:08:46:65:a5:84:6f:c0:0a:c3:d5:e5:e1:b6:f5:7b:75:fb:
        33:35:89:45:b7:c0:fc:35:90:ed:e4:53:b9:14:0c:85:05:63:
        90:cb:e9:ba:d2:a6:77:a8:00:56:24:ca:e8:c2:ef:dd:3c:f4:
        e7:4a
-----BEGIN CERTIFICATE-----
MIIDezCCAuSgAwIBAgIRAJnXFgiNEZp9yABimjU8yqwwDQYJKoZIhvcNAQEFBQAw
ezELMAkGA1UEBhMCVVMxFjAUBgNVBAgTDU1hc3NhY2h1c2V0dHMxLjAsBgNVBAoT
JU1hc3NhY2h1c2V0dHMgSW5zdGl0dXRlIG9mIFRlY2hub2xvZ3kxJDAiBgNVBAsT
G01JVCBDZXJ0aWZpY2F0aW9uIEF1dGhvcml0eTAeFw0xMDA0MTgxNjAwMDBaFw0x
MTA0MTkxNjAwMDBaMIHNMQswCQYDVQQGEwJVUzEWMBQGA1UECBMNTWFzc2FjaHVz
ZXR0czESMBAGA1UEBxMJQ2FtYnJpZGdlMS4wLAYDVQQKEyVNYXNzYWNodXNldHRz
IEluc3RpdHV0ZSBvZiBUZWNobm9sb2d5MSwwKgYDVQQLEyNzY3JpcHRzLm1pdC5l
ZHUgd2ViIGhvc3Rpbmcgc2VydmljZTEUMBIGA1UEAxMLYXNhLm1pdC5lZHUxHjAc
BgkqhkiG9w0BCQEWD3NjcmlwdHNAbWl0LmVkdTCBnzANBgkqhkiG9w0BAQEFAAOB
jQAwgYkCgYEAtT4hTcGJawGMR4D+szcndvhSQeaiPUt2eOXyZjwPsa37l48uorZT
07YO4mb5uQu3zrTV9RwfbyJ9SPVt8BbNjkh50RRKFC8v+MS9HYfPfYtcd61YJLAO
oW3WCsfYvC9nZchd2NgxwmdLSvShpVSCr8s0CCoEf458TLfb3GqKXYECAwEAAaOB
qzCBqDAJBgNVHRMEAjAAMBEGCWCGSAGG+EIBAQQEAwIF4DAnBgNVHSUEIDAeBggr
BgEFBQcDAQYIKwYBBQUHAwQGCCsGAQUFBwMCMAsGA1UdDwQEAwIF4DAdBgNVHQ4E
FgQUVBF8CVVEHJRFqaJ2RissJCZqROgwMwYDVR0fBCwwKjAooCagJIYiaHR0cDov
L2NhLm1pdC5lZHUvY2EvbWl0c2VydmVyLmNybDANBgkqhkiG9w0BAQUFAAOBgQBR
T6TjMjyEPDXvamYsAXSFpEr5mHskgTgh9PO3bS5wYlSTnhMhpjdC/P/ifSMreoUj
uRy2D7pNReaf6D+q7R2fEerKquL7FtXgCEZlpYRvwArD1eXhtvV7dfszNYlFt8D8
NZDt5FO5FAyFBWOQy+m60qZ3qABWJMrowu/dPPTnSg==
-----END CERTIFICATE-----

