From mitcert@MIT.EDU Tue Nov  8 13:44:14 2011
Date: Tue, 8 Nov 2011 13:44:13 -0500
From: "mitcert@MIT.EDU" <mitcert@MIT.EDU>
To: Alexander Chernyakhovsky <achernya@mit.edu>
Subject: [help.mit.edu #1791901] certificate signing request for scripts-vhost ashdown.mit.edu 


Certificate:
    Data:
        Version: 3 (0x2)
        Serial Number:
            3f:ad:2c:25:f1:fc:32:b1:75:33:8f:8f:77:24:f1:0d
        Signature Algorithm: sha1WithRSAEncryption
        Issuer: C=US, ST=Massachusetts, O=Massachusetts Institute of Technology, OU=MIT Certification Authority
        Validity
            Not Before: Nov  7 17:00:00 2011 GMT
            Not After : Nov  7 17:00:00 2012 GMT
        Subject: C=US, ST=Massachusetts, L=Cambridge, O=Massachusetts Institute of Technology, OU=scripts.mit.edu web hosting service, CN=ashdown.mit.edu/emailAddress=scripts@mit.edu
        Subject Public Key Info:
            Public Key Algorithm: rsaEncryption
            RSA Public Key: (4096 bit)
                Modulus (4096 bit):
                    00:bf:a3:f2:7b:98:cc:16:a7:57:e6:92:85:34:56:
                    f1:e3:62:83:9e:6a:4f:35:9d:f0:cf:89:87:73:e3:
                    93:f7:b7:01:57:38:6e:e9:fc:59:4d:24:eb:a7:17:
                    47:ca:2c:51:0e:45:c8:b7:68:c9:0e:32:26:e0:91:
                    d3:06:5c:8c:7c:0e:6c:99:0c:b2:46:05:0f:4d:f1:
                    b0:c7:5e:35:06:62:fe:2a:d6:0f:1b:2c:b5:02:24:
                    4c:c3:06:71:ec:94:ca:1d:aa:af:7e:b9:2d:c0:55:
                    4b:cc:bc:51:3d:76:68:5b:d3:ed:35:d0:03:ba:1b:
                    6c:f3:a0:d8:d3:dc:6b:44:b0:5e:01:51:d3:02:cc:
                    4a:da:52:12:de:35:31:69:16:5a:48:8b:0f:ce:ad:
                    4d:e4:d5:8b:11:36:7f:87:1c:fd:84:da:43:2e:87:
                    2f:41:70:ac:ad:df:54:c0:ed:f6:21:51:fa:c5:06:
                    f0:1b:eb:a1:b0:bf:4d:1c:42:34:8a:d5:6f:f7:25:
                    66:73:8f:60:c4:d7:8d:33:91:f4:46:3a:97:09:59:
                    01:ff:c3:64:94:40:48:30:68:f0:6e:03:26:74:c2:
                    a1:b3:d7:cb:94:fc:6e:53:8a:2a:9e:fd:b1:4f:c4:
                    74:56:25:63:1f:aa:bd:95:25:78:9c:45:46:1b:0c:
                    21:71:eb:84:94:d0:b2:f1:da:52:f6:d1:7f:63:1d:
                    08:23:52:5f:c2:f9:4d:ac:a4:44:e5:9a:54:70:fc:
                    c9:fc:d4:d4:b7:1d:75:95:00:e3:bf:3e:4c:f3:43:
                    c3:96:c7:09:2a:29:45:12:d2:31:d6:79:4c:8a:e7:
                    54:27:22:c6:80:ae:87:23:56:f1:8d:49:9b:c8:fa:
                    ed:33:5b:5f:56:76:c8:0f:7e:85:14:69:c4:48:31:
                    07:39:a5:34:81:f2:6b:15:50:22:fb:bb:2c:ad:4b:
                    84:ea:55:64:f7:de:56:9d:d0:b6:d0:7d:1e:1b:51:
                    50:37:44:94:e6:c4:15:eb:45:31:f1:b3:ec:0f:b3:
                    a9:0c:f8:1c:47:c7:51:00:05:ef:ee:b0:3d:9f:7e:
                    07:a7:38:e8:83:4c:3d:db:34:b6:24:0c:90:57:c0:
                    f9:d0:64:14:8a:93:47:9b:41:f5:a3:14:1d:9e:18:
                    5d:d5:d8:66:af:f5:f3:c8:2f:bc:a7:02:a7:ef:dc:
                    f0:0e:c7:47:8d:2e:d6:a8:62:42:93:5b:7c:f5:35:
                    f8:31:10:7b:38:d4:40:24:68:81:13:27:cb:fb:76:
                    0e:d1:99:14:d8:d5:eb:f7:69:64:8f:af:8f:82:bb:
                    24:29:f9:d4:29:1d:ce:e6:14:ba:4c:8b:09:ff:46:
                    ce:8b:6d
                Exponent: 65537 (0x10001)
        X509v3 extensions:
            X509v3 Basic Constraints: 
                CA:FALSE
            Netscape Cert Type: 
                SSL Client, SSL Server, S/MIME
            X509v3 Extended Key Usage: 
                TLS Web Server Authentication, E-mail Protection, TLS Web Client Authentication
            X509v3 Key Usage: 
                Digital Signature, Non Repudiation, Key Encipherment
            X509v3 Subject Key Identifier: 
                CB:11:B7:01:5F:86:55:4F:45:5E:AB:27:69:BE:E1:3C:89:7A:55:62
            X509v3 CRL Distribution Points: 
                URI:http://ca.mit.edu/ca/mitserver.crl

    Signature Algorithm: sha1WithRSAEncryption
        44:d4:97:81:64:8d:bd:91:b2:4e:68:1a:d2:4a:a5:59:34:30:
        f7:f6:fd:21:9b:e0:68:07:63:39:9c:c7:e6:c7:39:95:7c:55:
        92:9b:bc:c2:39:ce:bb:74:78:72:ed:75:a7:9c:ce:82:1b:75:
        e3:31:5c:77:34:0f:0c:ea:ec:53:79:f4:f6:76:1a:14:76:fc:
        ab:6a:8c:b5:a7:89:5c:cd:ab:a5:ac:9d:b8:58:83:98:19:6b:
        d8:6a:cb:f8:2d:60:ab:aa:f2:3b:45:16:8f:18:29:92:8b:96:
        eb:06:34:08:32:27:70:a3:ab:37:32:fa:3f:73:da:18:94:9d:
        22:91
-----BEGIN CERTIFICATE-----
MIIFAjCCBGugAwIBAgIQP60sJfH8MrF1M4+PdyTxDTANBgkqhkiG9w0BAQUFADB7
MQswCQYDVQQGEwJVUzEWMBQGA1UECBMNTWFzc2FjaHVzZXR0czEuMCwGA1UEChMl
TWFzc2FjaHVzZXR0cyBJbnN0aXR1dGUgb2YgVGVjaG5vbG9neTEkMCIGA1UECxMb
TUlUIENlcnRpZmljYXRpb24gQXV0aG9yaXR5MB4XDTExMTEwNzE3MDAwMFoXDTEy
MTEwNzE3MDAwMFowgdExCzAJBgNVBAYTAlVTMRYwFAYDVQQIEw1NYXNzYWNodXNl
dHRzMRIwEAYDVQQHEwlDYW1icmlkZ2UxLjAsBgNVBAoTJU1hc3NhY2h1c2V0dHMg
SW5zdGl0dXRlIG9mIFRlY2hub2xvZ3kxLDAqBgNVBAsTI3NjcmlwdHMubWl0LmVk
dSB3ZWIgaG9zdGluZyBzZXJ2aWNlMRgwFgYDVQQDEw9hc2hkb3duLm1pdC5lZHUx
HjAcBgkqhkiG9w0BCQEWD3NjcmlwdHNAbWl0LmVkdTCCAiIwDQYJKoZIhvcNAQEB
BQADggIPADCCAgoCggIBAL+j8nuYzBanV+aShTRW8eNig55qTzWd8M+Jh3Pjk/e3
AVc4bun8WU0k66cXR8osUQ5FyLdoyQ4yJuCR0wZcjHwObJkMskYFD03xsMdeNQZi
/irWDxsstQIkTMMGceyUyh2qr365LcBVS8y8UT12aFvT7TXQA7obbPOg2NPca0Sw
XgFR0wLMStpSEt41MWkWWkiLD86tTeTVixE2f4cc/YTaQy6HL0FwrK3fVMDt9iFR
+sUG8BvrobC/TRxCNIrVb/clZnOPYMTXjTOR9EY6lwlZAf/DZJRASDBo8G4DJnTC
obPXy5T8blOKKp79sU/EdFYlYx+qvZUleJxFRhsMIXHrhJTQsvHaUvbRf2MdCCNS
X8L5TaykROWaVHD8yfzU1LcddZUA478+TPNDw5bHCSopRRLSMdZ5TIrnVCcixoCu
hyNW8Y1Jm8j67TNbX1Z2yA9+hRRpxEgxBzmlNIHyaxVQIvu7LK1LhOpVZPfeVp3Q
ttB9HhtRUDdElObEFetFMfGz7A+zqQz4HEfHUQAF7+6wPZ9+B6c46INMPds0tiQM
kFfA+dBkFIqTR5tB9aMUHZ4YXdXYZq/188gvvKcCp+/c8A7HR40u1qhiQpNbfPU1
+DEQezjUQCRogRMny/t2DtGZFNjV6/dpZI+vj4K7JCn51CkdzuYUukyLCf9Gzott
AgMBAAGjgaswgagwCQYDVR0TBAIwADARBglghkgBhvhCAQEEBAMCBeAwJwYDVR0l
BCAwHgYIKwYBBQUHAwEGCCsGAQUFBwMEBggrBgEFBQcDAjALBgNVHQ8EBAMCBeAw
HQYDVR0OBBYEFMsRtwFfhlVPRV6rJ2m+4TyJelViMDMGA1UdHwQsMCowKKAmoCSG
Imh0dHA6Ly9jYS5taXQuZWR1L2NhL21pdHNlcnZlci5jcmwwDQYJKoZIhvcNAQEF
BQADgYEARNSXgWSNvZGyTmga0kqlWTQw9/b9IZvgaAdjOZzH5sc5lXxVkpu8wjnO
u3R4cu11p5zOght14zFcdzQPDOrsU3n09nYaFHb8q2qMtaeJXM2rpayduFiDmBlr
2GrL+C1gq6ryO0UWjxgpkouW6wY0CDIncKOrNzL6P3PaGJSdIpE=
-----END CERTIFICATE-----

