From mitcert@MIT.EDU Thu Aug 28 22:18:38 2008
Date: Thu, 28 Aug 2008 22:18:27 -0400 (EDT)
From: mitcert@MIT.EDU
To: geofft@mit.edu
Subject: Certificate request for axo.mit.edu  [help.mit.edu #695259]

Certificate:
    Data:
        Version: 3 (0x2)
        Serial Number: 2948 (0xb84)
        Signature Algorithm: sha1WithRSAEncryption
        Issuer: C=US, ST=Massachusetts, O=Massachusetts Institute of Technology, OU=MIT Certification Authority
        Validity
            Not Before: Aug 27 16:00:00 2008 GMT
            Not After : Aug 27 16:00:00 2009 GMT
        Subject: C=US, ST=Massachusetts, L=Cambridge, O=Massachusetts Institute of Technology, OU=Student Information Processing Board, CN=axo.mit.edu/Email=scripts@mit.edu
        Subject Public Key Info:
            Public Key Algorithm: rsaEncryption
            RSA Public Key: (1024 bit)
                Modulus (1024 bit):
                    00:b5:3e:21:4d:c1:89:6b:01:8c:47:80:fe:b3:37:
                    27:76:f8:52:41:e6:a2:3d:4b:76:78:e5:f2:66:3c:
                    0f:b1:ad:fb:97:8f:2e:a2:b6:53:d3:b6:0e:e2:66:
                    f9:b9:0b:b7:ce:b4:d5:f5:1c:1f:6f:22:7d:48:f5:
                    6d:f0:16:cd:8e:48:79:d1:14:4a:14:2f:2f:f8:c4:
                    bd:1d:87:cf:7d:8b:5c:77:ad:58:24:b0:0e:a1:6d:
                    d6:0a:c7:d8:bc:2f:67:65:c8:5d:d8:d8:31:c2:67:
                    4b:4a:f4:a1:a5:54:82:af:cb:34:08:2a:04:7f:8e:
                    7c:4c:b7:db:dc:6a:8a:5d:81
                Exponent: 65537 (0x10001)
        X509v3 extensions:
            X509v3 Basic Constraints: 
                CA:FALSE
            Netscape Cert Type: 
                SSL Client, SSL Server, S/MIME
            X509v3 Extended Key Usage: 
                TLS Web Server Authentication, E-mail Protection, TLS Web Client Authentication
            X509v3 Key Usage: 
                Digital Signature, Non Repudiation, Key Encipherment
            X509v3 Subject Key Identifier: 
                54:11:7C:09:55:44:1C:94:45:A9:A2:76:46:2B:2C:24:26:6A:44:E8
    Signature Algorithm: sha1WithRSAEncryption
        b3:1f:5f:c3:f0:aa:a3:12:5a:d6:d9:94:bd:fc:84:f1:6e:99:
        dc:1c:33:6c:37:51:b7:c6:53:da:6f:31:d9:ce:6f:e6:3b:c7:
        42:62:a0:26:f4:63:de:7d:ff:a9:27:53:b9:cd:0b:d8:46:19:
        ea:9e:c1:24:0b:c7:59:7e:99:82:84:1b:91:5e:e5:a8:de:2c:
        0c:84:15:6a:3b:0c:5e:6c:dd:16:89:56:35:f5:a9:9a:26:c6:
        8d:ac:73:ab:8e:3d:79:7a:05:9e:73:5f:5d:91:d3:3c:58:be:
        12:ef:8a:f5:93:33:01:b7:50:24:da:3b:f0:5e:89:3b:95:07:
        85:9b
-----BEGIN CERTIFICATE-----
MIIDNjCCAp+gAwIBAgICC4QwDQYJKoZIhvcNAQEFBQAwezELMAkGA1UEBhMCVVMx
FjAUBgNVBAgTDU1hc3NhY2h1c2V0dHMxLjAsBgNVBAoTJU1hc3NhY2h1c2V0dHMg
SW5zdGl0dXRlIG9mIFRlY2hub2xvZ3kxJDAiBgNVBAsTG01JVCBDZXJ0aWZpY2F0
aW9uIEF1dGhvcml0eTAeFw0wODA4MjcxNjAwMDBaFw0wOTA4MjcxNjAwMDBaMIHO
MQswCQYDVQQGEwJVUzEWMBQGA1UECBMNTWFzc2FjaHVzZXR0czESMBAGA1UEBxMJ
Q2FtYnJpZGdlMS4wLAYDVQQKEyVNYXNzYWNodXNldHRzIEluc3RpdHV0ZSBvZiBU
ZWNobm9sb2d5MS0wKwYDVQQLEyRTdHVkZW50IEluZm9ybWF0aW9uIFByb2Nlc3Np
bmcgQm9hcmQxFDASBgNVBAMTC2F4by5taXQuZWR1MR4wHAYJKoZIhvcNAQkBFg9z
Y3JpcHRzQG1pdC5lZHUwgZ8wDQYJKoZIhvcNAQEBBQADgY0AMIGJAoGBALU+IU3B
iWsBjEeA/rM3J3b4UkHmoj1Ldnjl8mY8D7Gt+5ePLqK2U9O2DuJm+bkLt8601fUc
H28ifUj1bfAWzY5IedEUShQvL/jEvR2Hz32LXHetWCSwDqFt1grH2LwvZ2XIXdjY
McJnS0r0oaVUgq/LNAgqBH+OfEy329xqil2BAgMBAAGjdTBzMAkGA1UdEwQCMAAw
EQYJYIZIAYb4QgEBBAQDAgXgMCcGA1UdJQQgMB4GCCsGAQUFBwMBBggrBgEFBQcD
BAYIKwYBBQUHAwIwCwYDVR0PBAQDAgXgMB0GA1UdDgQWBBRUEXwJVUQclEWponZG
KywkJmpE6DANBgkqhkiG9w0BAQUFAAOBgQCzH1/D8KqjElrW2ZS9/ITxbpncHDNs
N1G3xlPabzHZzm/mO8dCYqAm9GPeff+pJ1O5zQvYRhnqnsEkC8dZfpmChBuRXuWo
3iwMhBVqOwxebN0WiVY19amaJsaNrHOrjj15egWec19dkdM8WL4S74r1kzMBt1Ak
2jvwXok7lQeFmw==
-----END CERTIFICATE-----

