From mitcert@MIT.EDU Sun Nov  8 17:27:34 2009
Date: Sun, 8 Nov 2009 17:26:49 -0500 (EST)
From: mitcert@MIT.EDU
To: scripts-root@mit.edu
Subject: certificate renewal request for scripts vhost barnowl.mit.edu  [help.mit.edu #1068234]

Certificate:
    Data:
        Version: 3 (0x2)
        Serial Number:
            49:1a:bf:65:02:15:d0:fb:c9:79:21:d2:bd:fb:d3:de
        Signature Algorithm: sha1WithRSAEncryption
        Issuer: C=US, ST=Massachusetts, O=Massachusetts Institute of Technology, OU=MIT Certification Authority
        Validity
            Not Before: Nov  7 17:00:00 2009 GMT
            Not After : Nov  8 17:00:00 2010 GMT
        Subject: C=US, ST=Massachusetts, L=Cambridge, O=Massachusetts Institute of Technology, OU=scripts.mit.edu web hosting service, CN=barnowl.mit.edu/emailAddress=scripts@mit.edu
        Subject Public Key Info:
            Public Key Algorithm: rsaEncryption
            RSA Public Key: (1024 bit)
                Modulus (1024 bit):
                    00:b5:3e:21:4d:c1:89:6b:01:8c:47:80:fe:b3:37:
                    27:76:f8:52:41:e6:a2:3d:4b:76:78:e5:f2:66:3c:
                    0f:b1:ad:fb:97:8f:2e:a2:b6:53:d3:b6:0e:e2:66:
                    f9:b9:0b:b7:ce:b4:d5:f5:1c:1f:6f:22:7d:48:f5:
                    6d:f0:16:cd:8e:48:79:d1:14:4a:14:2f:2f:f8:c4:
                    bd:1d:87:cf:7d:8b:5c:77:ad:58:24:b0:0e:a1:6d:
                    d6:0a:c7:d8:bc:2f:67:65:c8:5d:d8:d8:31:c2:67:
                    4b:4a:f4:a1:a5:54:82:af:cb:34:08:2a:04:7f:8e:
                    7c:4c:b7:db:dc:6a:8a:5d:81
                Exponent: 65537 (0x10001)
        X509v3 extensions:
            X509v3 Basic Constraints: 
                CA:FALSE
            Netscape Cert Type: 
                SSL Client, SSL Server, S/MIME
            X509v3 Extended Key Usage: 
                TLS Web Server Authentication, E-mail Protection, TLS Web Client Authentication
            X509v3 Key Usage: 
                Digital Signature, Non Repudiation, Key Encipherment
            X509v3 Subject Key Identifier: 
                54:11:7C:09:55:44:1C:94:45:A9:A2:76:46:2B:2C:24:26:6A:44:E8
            X509v3 CRL Distribution Points: 
                URI:http://ca.mit.edu/ca/mitserver.crl

    Signature Algorithm: sha1WithRSAEncryption
        90:0b:a0:4e:dc:d0:51:3d:68:3c:db:e2:1a:d6:c6:81:8c:76:
        97:fc:67:fa:4e:46:ba:5e:45:bd:09:bc:06:e6:cf:67:57:5c:
        f0:0f:89:c0:ab:86:3d:ce:b4:a4:29:17:41:7e:83:3b:70:6b:
        1d:fe:65:3a:10:4b:fb:b8:3a:f2:03:c4:0d:fe:62:30:47:65:
        c6:c7:9f:58:0f:37:eb:ca:61:a5:b9:ea:08:51:48:4e:1d:b8:
        db:40:79:b4:60:8c:47:cf:f6:7e:df:24:22:1e:22:19:59:b0:
        f4:f9:6e:e2:84:50:6f:1c:6e:b4:fd:2c:15:1d:de:aa:17:d0:
        ea:b0
-----BEGIN CERTIFICATE-----
MIIDfjCCAuegAwIBAgIQSRq/ZQIV0PvJeSHSvfvT3jANBgkqhkiG9w0BAQUFADB7
MQswCQYDVQQGEwJVUzEWMBQGA1UECBMNTWFzc2FjaHVzZXR0czEuMCwGA1UEChMl
TWFzc2FjaHVzZXR0cyBJbnN0aXR1dGUgb2YgVGVjaG5vbG9neTEkMCIGA1UECxMb
TUlUIENlcnRpZmljYXRpb24gQXV0aG9yaXR5MB4XDTA5MTEwNzE3MDAwMFoXDTEw
MTEwODE3MDAwMFowgdExCzAJBgNVBAYTAlVTMRYwFAYDVQQIEw1NYXNzYWNodXNl
dHRzMRIwEAYDVQQHEwlDYW1icmlkZ2UxLjAsBgNVBAoTJU1hc3NhY2h1c2V0dHMg
SW5zdGl0dXRlIG9mIFRlY2hub2xvZ3kxLDAqBgNVBAsTI3NjcmlwdHMubWl0LmVk
dSB3ZWIgaG9zdGluZyBzZXJ2aWNlMRgwFgYDVQQDEw9iYXJub3dsLm1pdC5lZHUx
HjAcBgkqhkiG9w0BCQEWD3NjcmlwdHNAbWl0LmVkdTCBnzANBgkqhkiG9w0BAQEF
AAOBjQAwgYkCgYEAtT4hTcGJawGMR4D+szcndvhSQeaiPUt2eOXyZjwPsa37l48u
orZT07YO4mb5uQu3zrTV9RwfbyJ9SPVt8BbNjkh50RRKFC8v+MS9HYfPfYtcd61Y
JLAOoW3WCsfYvC9nZchd2NgxwmdLSvShpVSCr8s0CCoEf458TLfb3GqKXYECAwEA
AaOBqzCBqDAJBgNVHRMEAjAAMBEGCWCGSAGG+EIBAQQEAwIF4DAnBgNVHSUEIDAe
BggrBgEFBQcDAQYIKwYBBQUHAwQGCCsGAQUFBwMCMAsGA1UdDwQEAwIF4DAdBgNV
HQ4EFgQUVBF8CVVEHJRFqaJ2RissJCZqROgwMwYDVR0fBCwwKjAooCagJIYiaHR0
cDovL2NhLm1pdC5lZHUvY2EvbWl0c2VydmVyLmNybDANBgkqhkiG9w0BAQUFAAOB
gQCQC6BO3NBRPWg82+Ia1saBjHaX/Gf6Tka6XkW9CbwG5s9nV1zwD4nAq4Y9zrSk
KRdBfoM7cGsd/mU6EEv7uDryA8QN/mIwR2XGx59YDzfrymGlueoIUUhOHbjbQHm0
YIxHz/Z+3yQiHiIZWbD0+W7ihFBvHG60/SwVHd6qF9DqsA==
-----END CERTIFICATE-----

