From mitcert@MIT.EDU Tue Nov 18 11:50:00 2008
Date: Tue, 18 Nov 2008 11:46:18 -0500 (EST)
From: mitcert@MIT.EDU
To: geofft@mit.edu
Subject: CSR for scripts virtual host: barnowl.mit.edu  [help.mit.edu #754402]

Certificate:
    Data:
        Version: 3 (0x2)
        Serial Number: 3122 (0xc32)
        Signature Algorithm: sha1WithRSAEncryption
        Issuer: C=US, ST=Massachusetts, O=Massachusetts Institute of Technology, OU=MIT Certification Authority
        Validity
            Not Before: Nov 16 17:00:00 2008 GMT
            Not After : Nov 16 17:00:00 2009 GMT
        Subject: C=US, ST=Massachusetts, L=Cambridge, O=Massachusetts Institute of Technology, OU=Student Information Processing Board, CN=barnowl.mit.edu/Email=scripts@mit.edu
        Subject Public Key Info:
            Public Key Algorithm: rsaEncryption
            RSA Public Key: (1024 bit)
                Modulus (1024 bit):
                    00:b5:3e:21:4d:c1:89:6b:01:8c:47:80:fe:b3:37:
                    27:76:f8:52:41:e6:a2:3d:4b:76:78:e5:f2:66:3c:
                    0f:b1:ad:fb:97:8f:2e:a2:b6:53:d3:b6:0e:e2:66:
                    f9:b9:0b:b7:ce:b4:d5:f5:1c:1f:6f:22:7d:48:f5:
                    6d:f0:16:cd:8e:48:79:d1:14:4a:14:2f:2f:f8:c4:
                    bd:1d:87:cf:7d:8b:5c:77:ad:58:24:b0:0e:a1:6d:
                    d6:0a:c7:d8:bc:2f:67:65:c8:5d:d8:d8:31:c2:67:
                    4b:4a:f4:a1:a5:54:82:af:cb:34:08:2a:04:7f:8e:
                    7c:4c:b7:db:dc:6a:8a:5d:81
                Exponent: 65537 (0x10001)
        X509v3 extensions:
            X509v3 Basic Constraints: 
                CA:FALSE
            Netscape Cert Type: 
                SSL Client, SSL Server, S/MIME
            X509v3 Extended Key Usage: 
                TLS Web Server Authentication, E-mail Protection, TLS Web Client Authentication
            X509v3 Key Usage: 
                Digital Signature, Non Repudiation, Key Encipherment
            X509v3 Subject Key Identifier: 
                54:11:7C:09:55:44:1C:94:45:A9:A2:76:46:2B:2C:24:26:6A:44:E8
    Signature Algorithm: sha1WithRSAEncryption
        ae:bb:eb:52:6e:fb:49:27:49:f9:3b:1e:d3:c4:1b:9f:3b:99:
        37:f4:a8:f5:51:bb:64:dd:20:56:3c:42:40:56:85:33:ec:2b:
        01:fc:d5:65:f2:9b:e9:b5:96:8f:b7:15:da:52:54:1c:63:60:
        07:f8:5d:2c:28:19:ad:17:f4:26:ec:82:9b:df:86:9c:a0:eb:
        25:d7:f0:3e:df:78:3a:42:8a:96:f1:e9:b8:ef:9f:34:df:54:
        58:cc:c4:46:be:74:48:fe:56:62:76:58:19:0d:f3:89:72:8b:
        df:fb:82:d7:62:7a:bb:a3:45:88:3f:9b:c6:9a:06:82:f8:e8:
        7f:24
-----BEGIN CERTIFICATE-----
MIIDOjCCAqOgAwIBAgICDDIwDQYJKoZIhvcNAQEFBQAwezELMAkGA1UEBhMCVVMx
FjAUBgNVBAgTDU1hc3NhY2h1c2V0dHMxLjAsBgNVBAoTJU1hc3NhY2h1c2V0dHMg
SW5zdGl0dXRlIG9mIFRlY2hub2xvZ3kxJDAiBgNVBAsTG01JVCBDZXJ0aWZpY2F0
aW9uIEF1dGhvcml0eTAeFw0wODExMTYxNzAwMDBaFw0wOTExMTYxNzAwMDBaMIHS
MQswCQYDVQQGEwJVUzEWMBQGA1UECBMNTWFzc2FjaHVzZXR0czESMBAGA1UEBxMJ
Q2FtYnJpZGdlMS4wLAYDVQQKEyVNYXNzYWNodXNldHRzIEluc3RpdHV0ZSBvZiBU
ZWNobm9sb2d5MS0wKwYDVQQLEyRTdHVkZW50IEluZm9ybWF0aW9uIFByb2Nlc3Np
bmcgQm9hcmQxGDAWBgNVBAMTD2Jhcm5vd2wubWl0LmVkdTEeMBwGCSqGSIb3DQEJ
ARYPc2NyaXB0c0BtaXQuZWR1MIGfMA0GCSqGSIb3DQEBAQUAA4GNADCBiQKBgQC1
PiFNwYlrAYxHgP6zNyd2+FJB5qI9S3Z45fJmPA+xrfuXjy6itlPTtg7iZvm5C7fO
tNX1HB9vIn1I9W3wFs2OSHnRFEoULy/4xL0dh899i1x3rVgksA6hbdYKx9i8L2dl
yF3Y2DHCZ0tK9KGlVIKvyzQIKgR/jnxMt9vcaopdgQIDAQABo3UwczAJBgNVHRME
AjAAMBEGCWCGSAGG+EIBAQQEAwIF4DAnBgNVHSUEIDAeBggrBgEFBQcDAQYIKwYB
BQUHAwQGCCsGAQUFBwMCMAsGA1UdDwQEAwIF4DAdBgNVHQ4EFgQUVBF8CVVEHJRF
qaJ2RissJCZqROgwDQYJKoZIhvcNAQEFBQADgYEArrvrUm77SSdJ+Tse08QbnzuZ
N/So9VG7ZN0gVjxCQFaFM+wrAfzVZfKb6bWWj7cV2lJUHGNgB/hdLCgZrRf0JuyC
m9+GnKDrJdfwPt94OkKKlvHpuO+fNN9UWMzERr50SP5WYnZYGQ3ziXKL3/uC12J6
u6NFiD+bxpoGgvjofyQ=
-----END CERTIFICATE-----

