From mitcert@MIT.EDU Thu Oct 28 09:31:32 2010
Date: Thu, 28 Oct 2010 09:31:30 -0400 (EDT)
From: mitcert@MIT.EDU
To: geofft@mit.edu
Subject: CSR for barnowl.mit.edu  [help.mit.edu #1385000]

Certificate:
    Data:
        Version: 3 (0x2)
        Serial Number:
            79:30:52:53:16:02:80:22:5d:71:c4:b9:74:27:3c:07
        Signature Algorithm: sha1WithRSAEncryption
        Issuer: C=US, ST=Massachusetts, O=Massachusetts Institute of Technology, OU=MIT Certification Authority
        Validity
            Not Before: Oct 26 16:00:00 2010 GMT
            Not After : Oct 27 16:00:00 2011 GMT
        Subject: C=US, ST=Massachusetts, L=Cambridge, O=Massachusetts Institute of Technology, OU=Scripts.mit.edu Web Hosting Service, CN=barnowl.mit.edu/emailAddress=scripts@mit.edu
        Subject Public Key Info:
            Public Key Algorithm: rsaEncryption
            RSA Public Key: (1024 bit)
                Modulus (1024 bit):
                    00:b5:3e:21:4d:c1:89:6b:01:8c:47:80:fe:b3:37:
                    27:76:f8:52:41:e6:a2:3d:4b:76:78:e5:f2:66:3c:
                    0f:b1:ad:fb:97:8f:2e:a2:b6:53:d3:b6:0e:e2:66:
                    f9:b9:0b:b7:ce:b4:d5:f5:1c:1f:6f:22:7d:48:f5:
                    6d:f0:16:cd:8e:48:79:d1:14:4a:14:2f:2f:f8:c4:
                    bd:1d:87:cf:7d:8b:5c:77:ad:58:24:b0:0e:a1:6d:
                    d6:0a:c7:d8:bc:2f:67:65:c8:5d:d8:d8:31:c2:67:
                    4b:4a:f4:a1:a5:54:82:af:cb:34:08:2a:04:7f:8e:
                    7c:4c:b7:db:dc:6a:8a:5d:81
                Exponent: 65537 (0x10001)
        X509v3 extensions:
            X509v3 Basic Constraints: 
                CA:FALSE
            Netscape Cert Type: 
                SSL Client, SSL Server, S/MIME
            X509v3 Extended Key Usage: 
                TLS Web Server Authentication, E-mail Protection, TLS Web Client Authentication
            X509v3 Key Usage: 
                Digital Signature, Non Repudiation, Key Encipherment
            X509v3 Subject Key Identifier: 
                54:11:7C:09:55:44:1C:94:45:A9:A2:76:46:2B:2C:24:26:6A:44:E8
            X509v3 CRL Distribution Points: 
                URI:http://ca.mit.edu/ca/mitserver.crl

    Signature Algorithm: sha1WithRSAEncryption
        77:a7:52:e3:c1:0e:ba:bc:dd:a9:c6:42:44:8e:a9:26:85:4c:
        d2:cb:85:12:03:72:31:c3:d6:f4:ae:b0:0d:64:8a:c3:e6:9d:
        c9:e5:3d:77:51:9b:7e:52:95:fc:d4:79:9a:78:a7:e6:1b:61:
        6c:e7:4f:ae:42:f8:ab:27:a1:7d:1e:6a:a6:27:b4:a3:ff:77:
        d0:69:8d:e2:59:42:8e:5c:7c:1a:0d:da:f8:68:37:7e:3a:ba:
        ba:05:d4:91:77:f2:0c:6a:ab:ff:64:b6:b3:0a:42:8c:3a:5e:
        18:ff:9d:6b:19:fd:44:60:64:30:b1:03:d0:21:fa:3a:21:47:
        97:f5
-----BEGIN CERTIFICATE-----
MIIDfjCCAuegAwIBAgIQeTBSUxYCgCJdccS5dCc8BzANBgkqhkiG9w0BAQUFADB7
MQswCQYDVQQGEwJVUzEWMBQGA1UECBMNTWFzc2FjaHVzZXR0czEuMCwGA1UEChMl
TWFzc2FjaHVzZXR0cyBJbnN0aXR1dGUgb2YgVGVjaG5vbG9neTEkMCIGA1UECxMb
TUlUIENlcnRpZmljYXRpb24gQXV0aG9yaXR5MB4XDTEwMTAyNjE2MDAwMFoXDTEx
MTAyNzE2MDAwMFowgdExCzAJBgNVBAYTAlVTMRYwFAYDVQQIEw1NYXNzYWNodXNl
dHRzMRIwEAYDVQQHEwlDYW1icmlkZ2UxLjAsBgNVBAoTJU1hc3NhY2h1c2V0dHMg
SW5zdGl0dXRlIG9mIFRlY2hub2xvZ3kxLDAqBgNVBAsTI1NjcmlwdHMubWl0LmVk
dSBXZWIgSG9zdGluZyBTZXJ2aWNlMRgwFgYDVQQDEw9iYXJub3dsLm1pdC5lZHUx
HjAcBgkqhkiG9w0BCQEWD3NjcmlwdHNAbWl0LmVkdTCBnzANBgkqhkiG9w0BAQEF
AAOBjQAwgYkCgYEAtT4hTcGJawGMR4D+szcndvhSQeaiPUt2eOXyZjwPsa37l48u
orZT07YO4mb5uQu3zrTV9RwfbyJ9SPVt8BbNjkh50RRKFC8v+MS9HYfPfYtcd61Y
JLAOoW3WCsfYvC9nZchd2NgxwmdLSvShpVSCr8s0CCoEf458TLfb3GqKXYECAwEA
AaOBqzCBqDAJBgNVHRMEAjAAMBEGCWCGSAGG+EIBAQQEAwIF4DAnBgNVHSUEIDAe
BggrBgEFBQcDAQYIKwYBBQUHAwQGCCsGAQUFBwMCMAsGA1UdDwQEAwIF4DAdBgNV
HQ4EFgQUVBF8CVVEHJRFqaJ2RissJCZqROgwMwYDVR0fBCwwKjAooCagJIYiaHR0
cDovL2NhLm1pdC5lZHUvY2EvbWl0c2VydmVyLmNybDANBgkqhkiG9w0BAQUFAAOB
gQB3p1LjwQ66vN2pxkJEjqkmhUzSy4USA3Ixw9b0rrANZIrD5p3J5T13UZt+UpX8
1HmaeKfmG2Fs50+uQvirJ6F9HmqmJ7Sj/3fQaY3iWUKOXHwaDdr4aDd+Orq6BdSR
d/IMaqv/ZLazCkKMOl4Y/51rGf1EYGQwsQPQIfo6IUeX9Q==
-----END CERTIFICATE-----

