From mitcert@MIT.EDU Sun Apr 11 09:41:40 2010
Date: Sun, 11 Apr 2010 09:41:39 -0400 (EDT)
From: mitcert@MIT.EDU
To: mitchb@mit.edu
Subject: Certificate signing request for bc.mit.edu  [help.mit.edu #1205460]

Certificate:
    Data:
        Version: 3 (0x2)
        Serial Number:
            1c:15:a7:5e:df:ea:71:4c:d9:a7:84:ba:2d:9f:d8:f0
        Signature Algorithm: sha1WithRSAEncryption
        Issuer: C=US, ST=Massachusetts, O=Massachusetts Institute of Technology, OU=MIT Certification Authority
        Validity
            Not Before: Apr  9 16:00:00 2010 GMT
            Not After : Apr 11 16:00:00 2011 GMT
        Subject: C=US, ST=Massachusetts, L=Cambridge, O=Massachusetts Institute of Technology, OU=scripts.mit.edu web hosting service, CN=bc.mit.edu/emailAddress=scripts@mit.edu
        Subject Public Key Info:
            Public Key Algorithm: rsaEncryption
            RSA Public Key: (1024 bit)
                Modulus (1024 bit):
                    00:b5:3e:21:4d:c1:89:6b:01:8c:47:80:fe:b3:37:
                    27:76:f8:52:41:e6:a2:3d:4b:76:78:e5:f2:66:3c:
                    0f:b1:ad:fb:97:8f:2e:a2:b6:53:d3:b6:0e:e2:66:
                    f9:b9:0b:b7:ce:b4:d5:f5:1c:1f:6f:22:7d:48:f5:
                    6d:f0:16:cd:8e:48:79:d1:14:4a:14:2f:2f:f8:c4:
                    bd:1d:87:cf:7d:8b:5c:77:ad:58:24:b0:0e:a1:6d:
                    d6:0a:c7:d8:bc:2f:67:65:c8:5d:d8:d8:31:c2:67:
                    4b:4a:f4:a1:a5:54:82:af:cb:34:08:2a:04:7f:8e:
                    7c:4c:b7:db:dc:6a:8a:5d:81
                Exponent: 65537 (0x10001)
        X509v3 extensions:
            X509v3 Basic Constraints: 
                CA:FALSE
            Netscape Cert Type: 
                SSL Client, SSL Server, S/MIME
            X509v3 Extended Key Usage: 
                TLS Web Server Authentication, E-mail Protection, TLS Web Client Authentication
            X509v3 Key Usage: 
                Digital Signature, Non Repudiation, Key Encipherment
            X509v3 Subject Key Identifier: 
                54:11:7C:09:55:44:1C:94:45:A9:A2:76:46:2B:2C:24:26:6A:44:E8
            X509v3 CRL Distribution Points: 
                URI:http://ca.mit.edu/ca/mitserver.crl

    Signature Algorithm: sha1WithRSAEncryption
        90:63:79:d8:ae:5a:57:f0:84:ad:65:1a:f2:2a:a2:e3:4e:f9:
        59:04:d6:3d:7e:e0:c7:c0:71:42:40:73:cf:cc:67:f2:28:dd:
        cc:a1:c1:40:ee:61:e2:79:d1:b4:3a:80:23:d9:95:12:5d:ac:
        ef:70:8a:42:91:65:a4:d1:db:df:a7:ff:f9:ea:cd:cd:cb:31:
        3d:fc:a2:d8:d9:f1:89:5e:b1:c8:1b:54:2d:4e:54:f6:35:46:
        50:3e:1c:f6:62:ed:cf:3f:40:09:bc:51:31:9b:a8:35:e0:e4:
        fe:c8:f2:c9:3d:72:cd:a5:af:00:1a:ca:ba:d1:60:cf:65:c5:
        21:1a
-----BEGIN CERTIFICATE-----
MIIDeTCCAuKgAwIBAgIQHBWnXt/qcUzZp4S6LZ/Y8DANBgkqhkiG9w0BAQUFADB7
MQswCQYDVQQGEwJVUzEWMBQGA1UECBMNTWFzc2FjaHVzZXR0czEuMCwGA1UEChMl
TWFzc2FjaHVzZXR0cyBJbnN0aXR1dGUgb2YgVGVjaG5vbG9neTEkMCIGA1UECxMb
TUlUIENlcnRpZmljYXRpb24gQXV0aG9yaXR5MB4XDTEwMDQwOTE2MDAwMFoXDTEx
MDQxMTE2MDAwMFowgcwxCzAJBgNVBAYTAlVTMRYwFAYDVQQIEw1NYXNzYWNodXNl
dHRzMRIwEAYDVQQHEwlDYW1icmlkZ2UxLjAsBgNVBAoTJU1hc3NhY2h1c2V0dHMg
SW5zdGl0dXRlIG9mIFRlY2hub2xvZ3kxLDAqBgNVBAsTI3NjcmlwdHMubWl0LmVk
dSB3ZWIgaG9zdGluZyBzZXJ2aWNlMRMwEQYDVQQDEwpiYy5taXQuZWR1MR4wHAYJ
KoZIhvcNAQkBFg9zY3JpcHRzQG1pdC5lZHUwgZ8wDQYJKoZIhvcNAQEBBQADgY0A
MIGJAoGBALU+IU3BiWsBjEeA/rM3J3b4UkHmoj1Ldnjl8mY8D7Gt+5ePLqK2U9O2
DuJm+bkLt8601fUcH28ifUj1bfAWzY5IedEUShQvL/jEvR2Hz32LXHetWCSwDqFt
1grH2LwvZ2XIXdjYMcJnS0r0oaVUgq/LNAgqBH+OfEy329xqil2BAgMBAAGjgasw
gagwCQYDVR0TBAIwADARBglghkgBhvhCAQEEBAMCBeAwJwYDVR0lBCAwHgYIKwYB
BQUHAwEGCCsGAQUFBwMEBggrBgEFBQcDAjALBgNVHQ8EBAMCBeAwHQYDVR0OBBYE
FFQRfAlVRByURamidkYrLCQmakToMDMGA1UdHwQsMCowKKAmoCSGImh0dHA6Ly9j
YS5taXQuZWR1L2NhL21pdHNlcnZlci5jcmwwDQYJKoZIhvcNAQEFBQADgYEAkGN5
2K5aV/CErWUa8iqi4075WQTWPX7gx8BxQkBzz8xn8ijdzKHBQO5h4nnRtDqAI9mV
El2s73CKQpFlpNHb36f/+erNzcsxPfyi2NnxiV6xyBtULU5U9jVGUD4c9mLtzz9A
CbxRMZuoNeDk/sjyyT1yzaWvABrKutFgz2XFIRo=
-----END CERTIFICATE-----

