Date: Mon, 20 Apr 2009 11:14:29 EDT
To: mitchb@mit.edu
From: mitcert@MIT.EDU
Subject: CSR for bc.mit.edu [help.mit.edu #861464]

Certificate:
    Data:
        Version: 3 (0x2)
        Serial Number: 3447 (0xd77)
        Signature Algorithm: sha1WithRSAEncryption
        Issuer: C=US, ST=Massachusetts, O=Massachusetts Institute of Technology,
 OU=MIT Certification Authority
        Validity
            Not Before: Apr 18 16:00:00 2009 GMT
            Not After : Apr 15 16:00:00 2010 GMT
        Subject: C=US, ST=Massachusetts, L=Cambridge, O=Massachusetts Institute 
of Technology, OU=Student Information Processing Board, CN=bc.mit.edu/Email=scri
pts@mit.edu
        Subject Public Key Info:
            Public Key Algorithm: rsaEncryption
            RSA Public Key: (1024 bit)
                Modulus (1024 bit):
                    00:b5:3e:21:4d:c1:89:6b:01:8c:47:80:fe:b3:37:
                    27:76:f8:52:41:e6:a2:3d:4b:76:78:e5:f2:66:3c:
                    0f:b1:ad:fb:97:8f:2e:a2:b6:53:d3:b6:0e:e2:66:
                    f9:b9:0b:b7:ce:b4:d5:f5:1c:1f:6f:22:7d:48:f5:
                    6d:f0:16:cd:8e:48:79:d1:14:4a:14:2f:2f:f8:c4:
                    bd:1d:87:cf:7d:8b:5c:77:ad:58:24:b0:0e:a1:6d:
                    d6:0a:c7:d8:bc:2f:67:65:c8:5d:d8:d8:31:c2:67:
                    4b:4a:f4:a1:a5:54:82:af:cb:34:08:2a:04:7f:8e:
                    7c:4c:b7:db:dc:6a:8a:5d:81
                Exponent: 65537 (0x10001)
        X509v3 extensions:
            X509v3 Basic Constraints: 
                CA:FALSE
            Netscape Cert Type: 
                SSL Client, SSL Server, S/MIME
            X509v3 Extended Key Usage: 
                TLS Web Server Authentication, E-mail Protection, TLS Web Client
 Authentication
            X509v3 Key Usage: 
                Digital Signature, Non Repudiation, Key Encipherment
            X509v3 Subject Key Identifier: 
                54:11:7C:09:55:44:1C:94:45:A9:A2:76:46:2B:2C:24:26:6A:44:E8
    Signature Algorithm: sha1WithRSAEncryption
        68:52:0f:94:ae:ee:30:9a:98:5a:4b:e8:9b:42:b5:66:16:bc:
        65:0a:91:6c:92:5a:d4:58:80:f4:d0:8e:27:88:31:ef:7e:23:
        e5:84:c7:53:07:b0:e0:34:94:4d:bd:7a:33:57:1c:29:3c:ee:
        3f:5c:ad:98:f9:1b:58:97:49:8a:2d:22:62:74:d6:f6:38:85:
        cc:eb:de:88:c3:ec:d6:4c:49:52:96:fd:3a:ca:0b:45:f1:56:
        37:d2:d4:8b:7c:0f:4c:7c:4a:85:c0:71:79:66:33:78:e7:e9:
        be:ca:0e:12:38:0b:5a:fe:48:30:22:1a:91:f4:a0:76:d6:9a:
        4e:f8

-----BEGIN CERTIFICATE-----
MIIDNTCCAp6gAwIBAgICDXcwDQYJKoZIhvcNAQEFBQAwezELMAkGA1UEBhMCVVMx
FjAUBgNVBAgTDU1hc3NhY2h1c2V0dHMxLjAsBgNVBAoTJU1hc3NhY2h1c2V0dHMg
SW5zdGl0dXRlIG9mIFRlY2hub2xvZ3kxJDAiBgNVBAsTG01JVCBDZXJ0aWZpY2F0
aW9uIEF1dGhvcml0eTAeFw0wOTA0MTgxNjAwMDBaFw0xMDA0MTUxNjAwMDBaMIHN
MQswCQYDVQQGEwJVUzEWMBQGA1UECBMNTWFzc2FjaHVzZXR0czESMBAGA1UEBxMJ
Q2FtYnJpZGdlMS4wLAYDVQQKEyVNYXNzYWNodXNldHRzIEluc3RpdHV0ZSBvZiBU
ZWNobm9sb2d5MS0wKwYDVQQLEyRTdHVkZW50IEluZm9ybWF0aW9uIFByb2Nlc3Np
bmcgQm9hcmQxEzARBgNVBAMTCmJjLm1pdC5lZHUxHjAcBgkqhkiG9w0BCQEWD3Nj
cmlwdHNAbWl0LmVkdTCBnzANBgkqhkiG9w0BAQEFAAOBjQAwgYkCgYEAtT4hTcGJ
awGMR4D+szcndvhSQeaiPUt2eOXyZjwPsa37l48uorZT07YO4mb5uQu3zrTV9Rwf
byJ9SPVt8BbNjkh50RRKFC8v+MS9HYfPfYtcd61YJLAOoW3WCsfYvC9nZchd2Ngx
wmdLSvShpVSCr8s0CCoEf458TLfb3GqKXYECAwEAAaN1MHMwCQYDVR0TBAIwADAR
BglghkgBhvhCAQEEBAMCBeAwJwYDVR0lBCAwHgYIKwYBBQUHAwEGCCsGAQUFBwME
BggrBgEFBQcDAjALBgNVHQ8EBAMCBeAwHQYDVR0OBBYEFFQRfAlVRByURamidkYr
LCQmakToMA0GCSqGSIb3DQEBBQUAA4GBAGhSD5Su7jCamFpL6JtCtWYWvGUKkWyS
WtRYgPTQjieIMe9+I+WEx1MHsOA0lE29ejNXHCk87j9crZj5G1iXSYotImJ01vY4
hczr3ojD7NZMSVKW/TrKC0XxVjfS1It8D0x8SoXAcXlmM3jn6b7KDhI4C1r+SDAi
GpH0oHbWmk74
-----END CERTIFICATE-----

