Certificate:
    Data:
        Version: 3 (0x2)
        Serial Number: 275891 (0x435b3)
        Signature Algorithm: sha1WithRSAEncryption
        Issuer: C=IL, O=StartCom Ltd., OU=Secure Digital Certificate Signing, CN=StartCom Class 1 Primary Intermediate Server CA
        Validity
            Not Before: Sep 12 00:58:16 2011 GMT
            Not After : Sep 12 14:56:41 2012 GMT
        Subject: description=508223-DC90aIhDy1Y0fd12, CN=bluechips.emergent-studios.com/emailAddress=evan@ebroder.net
        Subject Public Key Info:
            Public Key Algorithm: rsaEncryption
                Public-Key: (4096 bit)
                Modulus:
                    00:bf:a3:f2:7b:98:cc:16:a7:57:e6:92:85:34:56:
                    f1:e3:62:83:9e:6a:4f:35:9d:f0:cf:89:87:73:e3:
                    93:f7:b7:01:57:38:6e:e9:fc:59:4d:24:eb:a7:17:
                    47:ca:2c:51:0e:45:c8:b7:68:c9:0e:32:26:e0:91:
                    d3:06:5c:8c:7c:0e:6c:99:0c:b2:46:05:0f:4d:f1:
                    b0:c7:5e:35:06:62:fe:2a:d6:0f:1b:2c:b5:02:24:
                    4c:c3:06:71:ec:94:ca:1d:aa:af:7e:b9:2d:c0:55:
                    4b:cc:bc:51:3d:76:68:5b:d3:ed:35:d0:03:ba:1b:
                    6c:f3:a0:d8:d3:dc:6b:44:b0:5e:01:51:d3:02:cc:
                    4a:da:52:12:de:35:31:69:16:5a:48:8b:0f:ce:ad:
                    4d:e4:d5:8b:11:36:7f:87:1c:fd:84:da:43:2e:87:
                    2f:41:70:ac:ad:df:54:c0:ed:f6:21:51:fa:c5:06:
                    f0:1b:eb:a1:b0:bf:4d:1c:42:34:8a:d5:6f:f7:25:
                    66:73:8f:60:c4:d7:8d:33:91:f4:46:3a:97:09:59:
                    01:ff:c3:64:94:40:48:30:68:f0:6e:03:26:74:c2:
                    a1:b3:d7:cb:94:fc:6e:53:8a:2a:9e:fd:b1:4f:c4:
                    74:56:25:63:1f:aa:bd:95:25:78:9c:45:46:1b:0c:
                    21:71:eb:84:94:d0:b2:f1:da:52:f6:d1:7f:63:1d:
                    08:23:52:5f:c2:f9:4d:ac:a4:44:e5:9a:54:70:fc:
                    c9:fc:d4:d4:b7:1d:75:95:00:e3:bf:3e:4c:f3:43:
                    c3:96:c7:09:2a:29:45:12:d2:31:d6:79:4c:8a:e7:
                    54:27:22:c6:80:ae:87:23:56:f1:8d:49:9b:c8:fa:
                    ed:33:5b:5f:56:76:c8:0f:7e:85:14:69:c4:48:31:
                    07:39:a5:34:81:f2:6b:15:50:22:fb:bb:2c:ad:4b:
                    84:ea:55:64:f7:de:56:9d:d0:b6:d0:7d:1e:1b:51:
                    50:37:44:94:e6:c4:15:eb:45:31:f1:b3:ec:0f:b3:
                    a9:0c:f8:1c:47:c7:51:00:05:ef:ee:b0:3d:9f:7e:
                    07:a7:38:e8:83:4c:3d:db:34:b6:24:0c:90:57:c0:
                    f9:d0:64:14:8a:93:47:9b:41:f5:a3:14:1d:9e:18:
                    5d:d5:d8:66:af:f5:f3:c8:2f:bc:a7:02:a7:ef:dc:
                    f0:0e:c7:47:8d:2e:d6:a8:62:42:93:5b:7c:f5:35:
                    f8:31:10:7b:38:d4:40:24:68:81:13:27:cb:fb:76:
                    0e:d1:99:14:d8:d5:eb:f7:69:64:8f:af:8f:82:bb:
                    24:29:f9:d4:29:1d:ce:e6:14:ba:4c:8b:09:ff:46:
                    ce:8b:6d
                Exponent: 65537 (0x10001)
        X509v3 extensions:
            X509v3 Basic Constraints: 
                CA:FALSE
            X509v3 Key Usage: 
                Digital Signature, Key Encipherment, Key Agreement
            X509v3 Extended Key Usage: 
                TLS Web Server Authentication
            X509v3 Subject Key Identifier: 
                CB:11:B7:01:5F:86:55:4F:45:5E:AB:27:69:BE:E1:3C:89:7A:55:62
            X509v3 Authority Key Identifier: 
                keyid:EB:42:34:D0:98:B0:AB:9F:F4:1B:6B:08:F7:CC:64:2E:EF:0E:2C:45

            X509v3 Subject Alternative Name: 
                DNS:bluechips.emergent-studios.com, DNS:emergent-studios.com
            X509v3 Certificate Policies: 
                Policy: 1.3.6.1.4.1.23223.1.2.2
                  CPS: http://www.startssl.com/policy.pdf
                  CPS: http://www.startssl.com/intermediate.pdf
                  User Notice:
                    Organization: StartCom Certification Authority
                    Number: 1
                    Explicit Text: This certificate was issued according to the Class 1 Validation requirements of the StartCom CA policy, reliance only for the intended purpose in compliance of the relying party obligations.
                  User Notice:
                    Organization: StartCom Certification Authority
                    Number: 2
                    Explicit Text: Liability and warranties are limited! See section "Legal and Limitations" of the StartCom CA policy.

            X509v3 CRL Distribution Points: 

                Full Name:
                  URI:http://crl.startssl.com/crt1-crl.crl

            Authority Information Access: 
                OCSP - URI:http://ocsp.startssl.com/sub/class1/server/ca
                CA Issuers - URI:http://aia.startssl.com/certs/sub.class1.server.ca.crt

            X509v3 Issuer Alternative Name: 
                URI:http://www.startssl.com/
    Signature Algorithm: sha1WithRSAEncryption
        14:17:ec:4c:8b:bd:41:b3:23:4b:d6:9f:b5:e9:61:e5:33:70:
        c6:3b:f7:be:af:c1:d3:26:fa:c4:a4:14:ca:87:b6:a0:fc:cd:
        63:7c:33:7d:4d:11:8f:cb:9a:b0:6e:6d:0f:89:9f:aa:f5:af:
        1f:98:03:9a:e8:69:10:d6:5d:1b:7a:7e:bf:26:74:fb:1a:23:
        3d:12:4b:d7:b4:c1:64:87:56:b6:c9:53:1a:9e:b9:f2:72:a3:
        1d:6a:f1:b9:b4:e3:6c:6a:6f:fe:5f:13:6f:cc:f6:0c:79:9f:
        28:35:87:a2:14:fe:37:45:a5:fb:cb:b6:55:c0:37:d8:64:72:
        29:5e:4e:0c:cf:f4:1a:a5:96:f1:e9:f6:6b:6b:5f:5f:94:05:
        7a:30:bd:f2:61:5a:d1:bd:0a:a4:13:d9:60:0e:f1:af:15:db:
        a7:e9:c4:bf:5d:a9:56:39:1a:d3:d7:cc:c6:5d:25:90:3c:3f:
        c8:6a:1e:34:d0:1e:97:9d:6d:af:16:5a:64:5f:7a:bf:d2:d4:
        10:8d:e1:ad:75:75:86:7b:ab:5d:f3:27:39:a3:a9:67:18:1a:
        6a:a3:98:98:f4:1d:15:d4:db:40:c0:fb:cf:6a:95:ae:c2:a1:
        64:32:dd:3f:9f:ff:bc:fa:ea:f0:46:4f:23:a0:39:27:1c:91:
        c8:f2:1c:80
-----BEGIN CERTIFICATE-----
MIIIPDCCBySgAwIBAgIDBDWzMA0GCSqGSIb3DQEBBQUAMIGMMQswCQYDVQQGEwJJ
TDEWMBQGA1UEChMNU3RhcnRDb20gTHRkLjErMCkGA1UECxMiU2VjdXJlIERpZ2l0
YWwgQ2VydGlmaWNhdGUgU2lnbmluZzE4MDYGA1UEAxMvU3RhcnRDb20gQ2xhc3Mg
MSBQcmltYXJ5IEludGVybWVkaWF0ZSBTZXJ2ZXIgQ0EwHhcNMTEwOTEyMDA1ODE2
WhcNMTIwOTEyMTQ1NjQxWjBsMSAwHgYDVQQNExc1MDgyMjMtREM5MGFJaER5MVkw
ZmQxMjEnMCUGA1UEAxMeYmx1ZWNoaXBzLmVtZXJnZW50LXN0dWRpb3MuY29tMR8w
HQYJKoZIhvcNAQkBFhBldmFuQGVicm9kZXIubmV0MIICIjANBgkqhkiG9w0BAQEF
AAOCAg8AMIICCgKCAgEAv6Pye5jMFqdX5pKFNFbx42KDnmpPNZ3wz4mHc+OT97cB
Vzhu6fxZTSTrpxdHyixRDkXIt2jJDjIm4JHTBlyMfA5smQyyRgUPTfGwx141BmL+
KtYPGyy1AiRMwwZx7JTKHaqvfrktwFVLzLxRPXZoW9PtNdADuhts86DY09xrRLBe
AVHTAsxK2lIS3jUxaRZaSIsPzq1N5NWLETZ/hxz9hNpDLocvQXCsrd9UwO32IVH6
xQbwG+uhsL9NHEI0itVv9yVmc49gxNeNM5H0RjqXCVkB/8NklEBIMGjwbgMmdMKh
s9fLlPxuU4oqnv2xT8R0ViVjH6q9lSV4nEVGGwwhceuElNCy8dpS9tF/Yx0II1Jf
wvlNrKRE5ZpUcPzJ/NTUtx11lQDjvz5M80PDlscJKilFEtIx1nlMiudUJyLGgK6H
I1bxjUmbyPrtM1tfVnbID36FFGnESDEHOaU0gfJrFVAi+7ssrUuE6lVk995WndC2
0H0eG1FQN0SU5sQV60Ux8bPsD7OpDPgcR8dRAAXv7rA9n34Hpzjog0w92zS2JAyQ
V8D50GQUipNHm0H1oxQdnhhd1dhmr/XzyC+8pwKn79zwDsdHjS7WqGJCk1t89TX4
MRB7ONRAJGiBEyfL+3YO0ZkU2NXr92lkj6+PgrskKfnUKR3O5hS6TIsJ/0bOi20C
AwEAAaOCA8QwggPAMAkGA1UdEwQCMAAwCwYDVR0PBAQDAgOoMBMGA1UdJQQMMAoG
CCsGAQUFBwMBMB0GA1UdDgQWBBTLEbcBX4ZVT0VeqydpvuE8iXpVYjAfBgNVHSME
GDAWgBTrQjTQmLCrn/Qbawj3zGQu7w4sRTA/BgNVHREEODA2gh5ibHVlY2hpcHMu
ZW1lcmdlbnQtc3R1ZGlvcy5jb22CFGVtZXJnZW50LXN0dWRpb3MuY29tMIICIQYD
VR0gBIICGDCCAhQwggIQBgsrBgEEAYG1NwECAjCCAf8wLgYIKwYBBQUHAgEWImh0
dHA6Ly93d3cuc3RhcnRzc2wuY29tL3BvbGljeS5wZGYwNAYIKwYBBQUHAgEWKGh0
dHA6Ly93d3cuc3RhcnRzc2wuY29tL2ludGVybWVkaWF0ZS5wZGYwgfcGCCsGAQUF
BwICMIHqMCcWIFN0YXJ0Q29tIENlcnRpZmljYXRpb24gQXV0aG9yaXR5MAMCAQEa
gb5UaGlzIGNlcnRpZmljYXRlIHdhcyBpc3N1ZWQgYWNjb3JkaW5nIHRvIHRoZSBD
bGFzcyAxIFZhbGlkYXRpb24gcmVxdWlyZW1lbnRzIG9mIHRoZSBTdGFydENvbSBD
QSBwb2xpY3ksIHJlbGlhbmNlIG9ubHkgZm9yIHRoZSBpbnRlbmRlZCBwdXJwb3Nl
IGluIGNvbXBsaWFuY2Ugb2YgdGhlIHJlbHlpbmcgcGFydHkgb2JsaWdhdGlvbnMu
MIGcBggrBgEFBQcCAjCBjzAnFiBTdGFydENvbSBDZXJ0aWZpY2F0aW9uIEF1dGhv
cml0eTADAgECGmRMaWFiaWxpdHkgYW5kIHdhcnJhbnRpZXMgYXJlIGxpbWl0ZWQh
IFNlZSBzZWN0aW9uICJMZWdhbCBhbmQgTGltaXRhdGlvbnMiIG9mIHRoZSBTdGFy
dENvbSBDQSBwb2xpY3kuMDUGA1UdHwQuMCwwKqAooCaGJGh0dHA6Ly9jcmwuc3Rh
cnRzc2wuY29tL2NydDEtY3JsLmNybDCBjgYIKwYBBQUHAQEEgYEwfzA5BggrBgEF
BQcwAYYtaHR0cDovL29jc3Auc3RhcnRzc2wuY29tL3N1Yi9jbGFzczEvc2VydmVy
L2NhMEIGCCsGAQUFBzAChjZodHRwOi8vYWlhLnN0YXJ0c3NsLmNvbS9jZXJ0cy9z
dWIuY2xhc3MxLnNlcnZlci5jYS5jcnQwIwYDVR0SBBwwGoYYaHR0cDovL3d3dy5z
dGFydHNzbC5jb20vMA0GCSqGSIb3DQEBBQUAA4IBAQAUF+xMi71BsyNL1p+16WHl
M3DGO/e+r8HTJvrEpBTKh7ag/M1jfDN9TRGPy5qwbm0PiZ+q9a8fmAOa6GkQ1l0b
en6/JnT7GiM9EkvXtMFkh1a2yVManrnycqMdavG5tONsam/+XxNvzPYMeZ8oNYei
FP43RaX7y7ZVwDfYZHIpXk4Mz/QapZbx6fZra19flAV6ML3yYVrRvQqkE9lgDvGv
Fdun6cS/XalWORrT18zGXSWQPD/Iah400B6XnW2vFlpkX3q/0tQQjeGtdXWGe6td
8yc5o6lnGBpqo5iY9B0V1NtAwPvPapWuwqFkMt0/n/+8+urwRk8joDknHJHI8hyA
-----END CERTIFICATE-----
