From mitcert@MIT.EDU Tue Sep  1 14:47:34 2009
Date: Tue, 1 Sep 2009 14:38:59 -0400 (EDT)
From: mitcert@MIT.EDU
To: geofft@mit.edu
Subject: CSR for scripts vhost bookspicker.mit.edu  [help.mit.edu #999514]

Certificate:
    Data:
        Version: 3 (0x2)
        Serial Number:
            7c:b8:70:4d:79:97:19:ac:91:7f:90:01:b5:46:4f:de
        Signature Algorithm: sha1WithRSAEncryption
        Issuer: C=US, ST=Massachusetts, O=Massachusetts Institute of Technology, OU=MIT Certification Authority
        Validity
            Not Before: Aug 31 16:00:00 2009 GMT
            Not After : Sep  1 16:00:00 2010 GMT
        Subject: C=US, ST=Massachusetts, L=Cambridge, O=Massachusetts Institute of Technology, OU=Student Information Processing Board, CN=bookspicker.mit.edu/emailAddress=scripts@mit.edu
        Subject Public Key Info:
            Public Key Algorithm: rsaEncryption
            RSA Public Key: (1024 bit)
                Modulus (1024 bit):
                    00:b5:3e:21:4d:c1:89:6b:01:8c:47:80:fe:b3:37:
                    27:76:f8:52:41:e6:a2:3d:4b:76:78:e5:f2:66:3c:
                    0f:b1:ad:fb:97:8f:2e:a2:b6:53:d3:b6:0e:e2:66:
                    f9:b9:0b:b7:ce:b4:d5:f5:1c:1f:6f:22:7d:48:f5:
                    6d:f0:16:cd:8e:48:79:d1:14:4a:14:2f:2f:f8:c4:
                    bd:1d:87:cf:7d:8b:5c:77:ad:58:24:b0:0e:a1:6d:
                    d6:0a:c7:d8:bc:2f:67:65:c8:5d:d8:d8:31:c2:67:
                    4b:4a:f4:a1:a5:54:82:af:cb:34:08:2a:04:7f:8e:
                    7c:4c:b7:db:dc:6a:8a:5d:81
                Exponent: 65537 (0x10001)
        X509v3 extensions:
            X509v3 Basic Constraints: 
                CA:FALSE
            Netscape Cert Type: 
                SSL Client, SSL Server, S/MIME
            X509v3 Extended Key Usage: 
                TLS Web Server Authentication, E-mail Protection, TLS Web Client Authentication
            X509v3 Key Usage: 
                Digital Signature, Non Repudiation, Key Encipherment
            X509v3 Subject Key Identifier: 
                54:11:7C:09:55:44:1C:94:45:A9:A2:76:46:2B:2C:24:26:6A:44:E8
            X509v3 CRL Distribution Points: 
                URI:http://ca.mit.edu/ca/mitserver.crl

    Signature Algorithm: sha1WithRSAEncryption
        53:3f:fe:8b:89:87:d4:62:83:fd:41:c2:ab:1c:89:94:e7:23:
        74:ca:d5:73:39:2b:5b:d0:22:f5:e7:93:2c:64:4a:aa:df:20:
        72:f6:45:53:3e:bc:d7:64:3b:79:ad:fd:74:2c:87:d5:84:8f:
        d1:f2:21:e6:58:bf:28:cb:bb:27:f3:35:cf:11:c5:7f:7d:51:
        17:f7:39:f2:65:c6:75:32:14:8b:73:6f:18:6d:ae:71:79:bd:
        50:b6:89:f0:aa:70:e1:5f:69:cb:8b:e2:81:55:aa:23:c6:5b:
        55:f4:d5:6b:72:7c:ef:4a:07:00:b9:2e:3e:de:0c:f3:61:e2:
        ff:d5
-----BEGIN CERTIFICATE-----
MIIDgzCCAuygAwIBAgIQfLhwTXmXGayRf5ABtUZP3jANBgkqhkiG9w0BAQUFADB7
MQswCQYDVQQGEwJVUzEWMBQGA1UECBMNTWFzc2FjaHVzZXR0czEuMCwGA1UEChMl
TWFzc2FjaHVzZXR0cyBJbnN0aXR1dGUgb2YgVGVjaG5vbG9neTEkMCIGA1UECxMb
TUlUIENlcnRpZmljYXRpb24gQXV0aG9yaXR5MB4XDTA5MDgzMTE2MDAwMFoXDTEw
MDkwMTE2MDAwMFowgdYxCzAJBgNVBAYTAlVTMRYwFAYDVQQIEw1NYXNzYWNodXNl
dHRzMRIwEAYDVQQHEwlDYW1icmlkZ2UxLjAsBgNVBAoTJU1hc3NhY2h1c2V0dHMg
SW5zdGl0dXRlIG9mIFRlY2hub2xvZ3kxLTArBgNVBAsTJFN0dWRlbnQgSW5mb3Jt
YXRpb24gUHJvY2Vzc2luZyBCb2FyZDEcMBoGA1UEAxMTYm9va3NwaWNrZXIubWl0
LmVkdTEeMBwGCSqGSIb3DQEJARYPc2NyaXB0c0BtaXQuZWR1MIGfMA0GCSqGSIb3
DQEBAQUAA4GNADCBiQKBgQC1PiFNwYlrAYxHgP6zNyd2+FJB5qI9S3Z45fJmPA+x
rfuXjy6itlPTtg7iZvm5C7fOtNX1HB9vIn1I9W3wFs2OSHnRFEoULy/4xL0dh899
i1x3rVgksA6hbdYKx9i8L2dlyF3Y2DHCZ0tK9KGlVIKvyzQIKgR/jnxMt9vcaopd
gQIDAQABo4GrMIGoMAkGA1UdEwQCMAAwEQYJYIZIAYb4QgEBBAQDAgXgMCcGA1Ud
JQQgMB4GCCsGAQUFBwMBBggrBgEFBQcDBAYIKwYBBQUHAwIwCwYDVR0PBAQDAgXg
MB0GA1UdDgQWBBRUEXwJVUQclEWponZGKywkJmpE6DAzBgNVHR8ELDAqMCigJqAk
hiJodHRwOi8vY2EubWl0LmVkdS9jYS9taXRzZXJ2ZXIuY3JsMA0GCSqGSIb3DQEB
BQUAA4GBAFM//ouJh9Rig/1BwqsciZTnI3TK1XM5K1vQIvXnkyxkSqrfIHL2RVM+
vNdkO3mt/XQsh9WEj9HyIeZYvyjLuyfzNc8RxX99URf3OfJlxnUyFItzbxhtrnF5
vVC2ifCqcOFfacuL4oFVqiPGW1X01WtyfO9KBwC5Lj7eDPNh4v/V
-----END CERTIFICATE-----

