From mitcert@MIT.EDU Tue Apr 19 14:44:59 2011
Date: Tue, 19 Apr 2011 14:44:57 -0400
From: mitcert@MIT.EDU
To: geofft@mit.edu
Subject: [help.mit.edu #1582630] Certificate request for carepackages.mit.edu 

Certificate:
    Data:
        Version: 3 (0x2)
        Serial Number:
            91:ca:bd:82:34:d5:b7:15:35:f1:ea:a5:f9:08:74:70
        Signature Algorithm: sha1WithRSAEncryption
        Issuer: C=US, ST=Massachusetts, O=Massachusetts Institute of Technology, OU=MIT Certification Authority
        Validity
            Not Before: Apr 18 16:00:00 2011 GMT
            Not After : Apr 18 16:00:00 2012 GMT
        Subject: C=US, ST=Massachusetts, L=Cambridge, O=Massachusetts Institute of Technology, OU=scripts.mit.edu web hosting service, CN=carepackages.mit.edu/emailAddress=scripts@mit.edu
        Subject Public Key Info:
            Public Key Algorithm: rsaEncryption
            RSA Public Key: (4096 bit)
                Modulus (4096 bit):
                    00:bf:a3:f2:7b:98:cc:16:a7:57:e6:92:85:34:56:
                    f1:e3:62:83:9e:6a:4f:35:9d:f0:cf:89:87:73:e3:
                    93:f7:b7:01:57:38:6e:e9:fc:59:4d:24:eb:a7:17:
                    47:ca:2c:51:0e:45:c8:b7:68:c9:0e:32:26:e0:91:
                    d3:06:5c:8c:7c:0e:6c:99:0c:b2:46:05:0f:4d:f1:
                    b0:c7:5e:35:06:62:fe:2a:d6:0f:1b:2c:b5:02:24:
                    4c:c3:06:71:ec:94:ca:1d:aa:af:7e:b9:2d:c0:55:
                    4b:cc:bc:51:3d:76:68:5b:d3:ed:35:d0:03:ba:1b:
                    6c:f3:a0:d8:d3:dc:6b:44:b0:5e:01:51:d3:02:cc:
                    4a:da:52:12:de:35:31:69:16:5a:48:8b:0f:ce:ad:
                    4d:e4:d5:8b:11:36:7f:87:1c:fd:84:da:43:2e:87:
                    2f:41:70:ac:ad:df:54:c0:ed:f6:21:51:fa:c5:06:
                    f0:1b:eb:a1:b0:bf:4d:1c:42:34:8a:d5:6f:f7:25:
                    66:73:8f:60:c4:d7:8d:33:91:f4:46:3a:97:09:59:
                    01:ff:c3:64:94:40:48:30:68:f0:6e:03:26:74:c2:
                    a1:b3:d7:cb:94:fc:6e:53:8a:2a:9e:fd:b1:4f:c4:
                    74:56:25:63:1f:aa:bd:95:25:78:9c:45:46:1b:0c:
                    21:71:eb:84:94:d0:b2:f1:da:52:f6:d1:7f:63:1d:
                    08:23:52:5f:c2:f9:4d:ac:a4:44:e5:9a:54:70:fc:
                    c9:fc:d4:d4:b7:1d:75:95:00:e3:bf:3e:4c:f3:43:
                    c3:96:c7:09:2a:29:45:12:d2:31:d6:79:4c:8a:e7:
                    54:27:22:c6:80:ae:87:23:56:f1:8d:49:9b:c8:fa:
                    ed:33:5b:5f:56:76:c8:0f:7e:85:14:69:c4:48:31:
                    07:39:a5:34:81:f2:6b:15:50:22:fb:bb:2c:ad:4b:
                    84:ea:55:64:f7:de:56:9d:d0:b6:d0:7d:1e:1b:51:
                    50:37:44:94:e6:c4:15:eb:45:31:f1:b3:ec:0f:b3:
                    a9:0c:f8:1c:47:c7:51:00:05:ef:ee:b0:3d:9f:7e:
                    07:a7:38:e8:83:4c:3d:db:34:b6:24:0c:90:57:c0:
                    f9:d0:64:14:8a:93:47:9b:41:f5:a3:14:1d:9e:18:
                    5d:d5:d8:66:af:f5:f3:c8:2f:bc:a7:02:a7:ef:dc:
                    f0:0e:c7:47:8d:2e:d6:a8:62:42:93:5b:7c:f5:35:
                    f8:31:10:7b:38:d4:40:24:68:81:13:27:cb:fb:76:
                    0e:d1:99:14:d8:d5:eb:f7:69:64:8f:af:8f:82:bb:
                    24:29:f9:d4:29:1d:ce:e6:14:ba:4c:8b:09:ff:46:
                    ce:8b:6d
                Exponent: 65537 (0x10001)
        X509v3 extensions:
            X509v3 Basic Constraints: 
                CA:FALSE
            Netscape Cert Type: 
                SSL Client, SSL Server, S/MIME
            X509v3 Extended Key Usage: 
                TLS Web Server Authentication, E-mail Protection, TLS Web Client Authentication
            X509v3 Key Usage: 
                Digital Signature, Non Repudiation, Key Encipherment
            X509v3 Subject Key Identifier: 
                CB:11:B7:01:5F:86:55:4F:45:5E:AB:27:69:BE:E1:3C:89:7A:55:62
            X509v3 CRL Distribution Points: 
                URI:http://ca.mit.edu/ca/mitserver.crl

    Signature Algorithm: sha1WithRSAEncryption
        62:09:ad:c1:43:17:16:6c:aa:9d:ef:91:91:50:e8:3b:f4:b1:
        a2:81:2d:fd:94:0c:d0:8e:8f:73:d1:6e:bc:4e:9d:d9:ab:46:
        6b:24:37:ef:5a:08:e9:38:8f:1f:6e:9d:b7:df:b9:2d:dc:53:
        9d:d0:fd:8e:b0:f5:02:f0:22:b1:d3:c9:da:e8:b4:5e:90:ce:
        05:94:c2:8d:81:19:a1:0f:89:da:55:78:29:74:56:2c:26:67:
        8d:c9:5d:ad:62:95:a9:21:b5:ce:87:a0:a1:39:75:1e:0c:92:
        2f:b8:53:59:8d:06:09:44:62:e7:0e:db:33:cb:04:8c:4d:1a:
        00:db
-----BEGIN CERTIFICATE-----
MIIFCDCCBHGgAwIBAgIRAJHKvYI01bcVNfHqpfkIdHAwDQYJKoZIhvcNAQEFBQAw
ezELMAkGA1UEBhMCVVMxFjAUBgNVBAgTDU1hc3NhY2h1c2V0dHMxLjAsBgNVBAoT
JU1hc3NhY2h1c2V0dHMgSW5zdGl0dXRlIG9mIFRlY2hub2xvZ3kxJDAiBgNVBAsT
G01JVCBDZXJ0aWZpY2F0aW9uIEF1dGhvcml0eTAeFw0xMTA0MTgxNjAwMDBaFw0x
MjA0MTgxNjAwMDBaMIHWMQswCQYDVQQGEwJVUzEWMBQGA1UECBMNTWFzc2FjaHVz
ZXR0czESMBAGA1UEBxMJQ2FtYnJpZGdlMS4wLAYDVQQKEyVNYXNzYWNodXNldHRz
IEluc3RpdHV0ZSBvZiBUZWNobm9sb2d5MSwwKgYDVQQLEyNzY3JpcHRzLm1pdC5l
ZHUgd2ViIGhvc3Rpbmcgc2VydmljZTEdMBsGA1UEAxMUY2FyZXBhY2thZ2VzLm1p
dC5lZHUxHjAcBgkqhkiG9w0BCQEWD3NjcmlwdHNAbWl0LmVkdTCCAiIwDQYJKoZI
hvcNAQEBBQADggIPADCCAgoCggIBAL+j8nuYzBanV+aShTRW8eNig55qTzWd8M+J
h3Pjk/e3AVc4bun8WU0k66cXR8osUQ5FyLdoyQ4yJuCR0wZcjHwObJkMskYFD03x
sMdeNQZi/irWDxsstQIkTMMGceyUyh2qr365LcBVS8y8UT12aFvT7TXQA7obbPOg
2NPca0SwXgFR0wLMStpSEt41MWkWWkiLD86tTeTVixE2f4cc/YTaQy6HL0FwrK3f
VMDt9iFR+sUG8BvrobC/TRxCNIrVb/clZnOPYMTXjTOR9EY6lwlZAf/DZJRASDBo
8G4DJnTCobPXy5T8blOKKp79sU/EdFYlYx+qvZUleJxFRhsMIXHrhJTQsvHaUvbR
f2MdCCNSX8L5TaykROWaVHD8yfzU1LcddZUA478+TPNDw5bHCSopRRLSMdZ5TIrn
VCcixoCuhyNW8Y1Jm8j67TNbX1Z2yA9+hRRpxEgxBzmlNIHyaxVQIvu7LK1LhOpV
ZPfeVp3QttB9HhtRUDdElObEFetFMfGz7A+zqQz4HEfHUQAF7+6wPZ9+B6c46INM
Pds0tiQMkFfA+dBkFIqTR5tB9aMUHZ4YXdXYZq/188gvvKcCp+/c8A7HR40u1qhi
QpNbfPU1+DEQezjUQCRogRMny/t2DtGZFNjV6/dpZI+vj4K7JCn51CkdzuYUukyL
Cf9GzottAgMBAAGjgaswgagwCQYDVR0TBAIwADARBglghkgBhvhCAQEEBAMCBeAw
JwYDVR0lBCAwHgYIKwYBBQUHAwEGCCsGAQUFBwMEBggrBgEFBQcDAjALBgNVHQ8E
BAMCBeAwHQYDVR0OBBYEFMsRtwFfhlVPRV6rJ2m+4TyJelViMDMGA1UdHwQsMCow
KKAmoCSGImh0dHA6Ly9jYS5taXQuZWR1L2NhL21pdHNlcnZlci5jcmwwDQYJKoZI
hvcNAQEFBQADgYEAYgmtwUMXFmyqne+RkVDoO/SxooEt/ZQM0I6Pc9FuvE6d2atG
ayQ371oI6TiPH26dt9+5LdxTndD9jrD1AvAisdPJ2ui0XpDOBZTCjYEZoQ+J2lV4
KXRWLCZnjcldrWKVqSG1zoegoTl1HgySL7hTWY0GCURi5w7bM8sEjE0aANs=
-----END CERTIFICATE-----

