From mitcert@MIT.EDU Thu Oct 28 09:32:39 2010
Date: Thu, 28 Oct 2010 09:32:38 -0400 (EDT)
From: mitcert@MIT.EDU
To: geofft@mit.edu
Subject: CSR for cdsa.mit.edu  [help.mit.edu #1385001]

Certificate:
    Data:
        Version: 3 (0x2)
        Serial Number:
            02:3c:d3:07:54:8f:68:94:a6:87:85:b9:eb:ab:bc:91
        Signature Algorithm: sha1WithRSAEncryption
        Issuer: C=US, ST=Massachusetts, O=Massachusetts Institute of Technology, OU=MIT Certification Authority
        Validity
            Not Before: Oct 26 16:00:00 2010 GMT
            Not After : Oct 27 16:00:00 2011 GMT
        Subject: C=US, ST=Massachusetts, L=Cambridge, O=Massachusetts Institute of Technology, OU=Scripts.mit.edu Web Hosting Service, CN=cdsa.mit.edu/emailAddress=scripts@mit.edu
        Subject Public Key Info:
            Public Key Algorithm: rsaEncryption
            RSA Public Key: (1024 bit)
                Modulus (1024 bit):
                    00:b5:3e:21:4d:c1:89:6b:01:8c:47:80:fe:b3:37:
                    27:76:f8:52:41:e6:a2:3d:4b:76:78:e5:f2:66:3c:
                    0f:b1:ad:fb:97:8f:2e:a2:b6:53:d3:b6:0e:e2:66:
                    f9:b9:0b:b7:ce:b4:d5:f5:1c:1f:6f:22:7d:48:f5:
                    6d:f0:16:cd:8e:48:79:d1:14:4a:14:2f:2f:f8:c4:
                    bd:1d:87:cf:7d:8b:5c:77:ad:58:24:b0:0e:a1:6d:
                    d6:0a:c7:d8:bc:2f:67:65:c8:5d:d8:d8:31:c2:67:
                    4b:4a:f4:a1:a5:54:82:af:cb:34:08:2a:04:7f:8e:
                    7c:4c:b7:db:dc:6a:8a:5d:81
                Exponent: 65537 (0x10001)
        X509v3 extensions:
            X509v3 Basic Constraints: 
                CA:FALSE
            Netscape Cert Type: 
                SSL Client, SSL Server, S/MIME
            X509v3 Extended Key Usage: 
                TLS Web Server Authentication, E-mail Protection, TLS Web Client Authentication
            X509v3 Key Usage: 
                Digital Signature, Non Repudiation, Key Encipherment
            X509v3 Subject Key Identifier: 
                54:11:7C:09:55:44:1C:94:45:A9:A2:76:46:2B:2C:24:26:6A:44:E8
            X509v3 CRL Distribution Points: 
                URI:http://ca.mit.edu/ca/mitserver.crl

    Signature Algorithm: sha1WithRSAEncryption
        06:6a:82:9e:e6:af:d1:0f:6e:80:14:2a:b7:c8:9f:9f:a9:76:
        5d:b6:c2:7a:a0:1e:d7:ac:12:35:33:a3:0b:f8:ac:ab:25:89:
        16:b9:01:40:72:30:98:d8:39:d5:43:b0:8d:36:6d:11:f3:cd:
        29:49:46:0c:5a:79:b8:6e:2c:05:02:2a:cd:ac:fd:72:0a:97:
        6a:ac:cc:26:cf:23:e8:20:fa:9b:e6:92:ea:d2:d1:9d:57:4e:
        8a:41:45:78:ba:19:d5:98:ab:c3:ce:c6:9a:b5:5c:6d:ca:61:
        a6:16:63:a3:77:de:0b:2e:76:c7:c1:58:37:c8:56:a2:47:40:
        0d:d1
-----BEGIN CERTIFICATE-----
MIIDezCCAuSgAwIBAgIQAjzTB1SPaJSmh4W566u8kTANBgkqhkiG9w0BAQUFADB7
MQswCQYDVQQGEwJVUzEWMBQGA1UECBMNTWFzc2FjaHVzZXR0czEuMCwGA1UEChMl
TWFzc2FjaHVzZXR0cyBJbnN0aXR1dGUgb2YgVGVjaG5vbG9neTEkMCIGA1UECxMb
TUlUIENlcnRpZmljYXRpb24gQXV0aG9yaXR5MB4XDTEwMTAyNjE2MDAwMFoXDTEx
MTAyNzE2MDAwMFowgc4xCzAJBgNVBAYTAlVTMRYwFAYDVQQIEw1NYXNzYWNodXNl
dHRzMRIwEAYDVQQHEwlDYW1icmlkZ2UxLjAsBgNVBAoTJU1hc3NhY2h1c2V0dHMg
SW5zdGl0dXRlIG9mIFRlY2hub2xvZ3kxLDAqBgNVBAsTI1NjcmlwdHMubWl0LmVk
dSBXZWIgSG9zdGluZyBTZXJ2aWNlMRUwEwYDVQQDEwxjZHNhLm1pdC5lZHUxHjAc
BgkqhkiG9w0BCQEWD3NjcmlwdHNAbWl0LmVkdTCBnzANBgkqhkiG9w0BAQEFAAOB
jQAwgYkCgYEAtT4hTcGJawGMR4D+szcndvhSQeaiPUt2eOXyZjwPsa37l48uorZT
07YO4mb5uQu3zrTV9RwfbyJ9SPVt8BbNjkh50RRKFC8v+MS9HYfPfYtcd61YJLAO
oW3WCsfYvC9nZchd2NgxwmdLSvShpVSCr8s0CCoEf458TLfb3GqKXYECAwEAAaOB
qzCBqDAJBgNVHRMEAjAAMBEGCWCGSAGG+EIBAQQEAwIF4DAnBgNVHSUEIDAeBggr
BgEFBQcDAQYIKwYBBQUHAwQGCCsGAQUFBwMCMAsGA1UdDwQEAwIF4DAdBgNVHQ4E
FgQUVBF8CVVEHJRFqaJ2RissJCZqROgwMwYDVR0fBCwwKjAooCagJIYiaHR0cDov
L2NhLm1pdC5lZHUvY2EvbWl0c2VydmVyLmNybDANBgkqhkiG9w0BAQUFAAOBgQAG
aoKe5q/RD26AFCq3yJ+fqXZdtsJ6oB7XrBI1M6ML+KyrJYkWuQFAcjCY2DnVQ7CN
Nm0R880pSUYMWnm4biwFAirNrP1yCpdqrMwmzyPoIPqb5pLq0tGdV06KQUV4uhnV
mKvDzsaatVxtymGmFmOjd94LLnbHwVg3yFaiR0AN0Q==
-----END CERTIFICATE-----

