From mitcert@MIT.EDU Tue Nov 18 11:50:52 2008
Date: Tue, 18 Nov 2008 11:45:34 -0500 (EST)
From: mitcert@MIT.EDU
To: geofft@mit.edu
Subject: CSR for scripts virtual host: cdsa.mit.edu  [help.mit.edu #754403]

Certificate:
    Data:
        Version: 3 (0x2)
        Serial Number: 3121 (0xc31)
        Signature Algorithm: sha1WithRSAEncryption
        Issuer: C=US, ST=Massachusetts, O=Massachusetts Institute of Technology, OU=MIT Certification Authority
        Validity
            Not Before: Nov 16 17:00:00 2008 GMT
            Not After : Nov 16 17:00:00 2009 GMT
        Subject: C=US, ST=Massachusetts, L=Cambridge, O=Massachusetts Institute of Technology, OU=Student Information Processing Board, CN=cdsa.mit.edu/Email=scripts@mit.edu
        Subject Public Key Info:
            Public Key Algorithm: rsaEncryption
            RSA Public Key: (1024 bit)
                Modulus (1024 bit):
                    00:b5:3e:21:4d:c1:89:6b:01:8c:47:80:fe:b3:37:
                    27:76:f8:52:41:e6:a2:3d:4b:76:78:e5:f2:66:3c:
                    0f:b1:ad:fb:97:8f:2e:a2:b6:53:d3:b6:0e:e2:66:
                    f9:b9:0b:b7:ce:b4:d5:f5:1c:1f:6f:22:7d:48:f5:
                    6d:f0:16:cd:8e:48:79:d1:14:4a:14:2f:2f:f8:c4:
                    bd:1d:87:cf:7d:8b:5c:77:ad:58:24:b0:0e:a1:6d:
                    d6:0a:c7:d8:bc:2f:67:65:c8:5d:d8:d8:31:c2:67:
                    4b:4a:f4:a1:a5:54:82:af:cb:34:08:2a:04:7f:8e:
                    7c:4c:b7:db:dc:6a:8a:5d:81
                Exponent: 65537 (0x10001)
        X509v3 extensions:
            X509v3 Basic Constraints: 
                CA:FALSE
            Netscape Cert Type: 
                SSL Client, SSL Server, S/MIME
            X509v3 Extended Key Usage: 
                TLS Web Server Authentication, E-mail Protection, TLS Web Client Authentication
            X509v3 Key Usage: 
                Digital Signature, Non Repudiation, Key Encipherment
            X509v3 Subject Key Identifier: 
                54:11:7C:09:55:44:1C:94:45:A9:A2:76:46:2B:2C:24:26:6A:44:E8
    Signature Algorithm: sha1WithRSAEncryption
        1e:5a:f1:e7:82:35:b4:41:29:71:b4:af:24:3f:5a:cc:5a:66:
        db:1f:45:6a:c1:a1:5b:25:31:cb:c7:9b:57:f1:b5:d7:09:59:
        1c:b6:d0:c3:3b:52:b8:f2:d0:7b:f0:b7:8b:a6:63:6f:dc:9d:
        8c:21:f8:05:7d:85:4c:a6:7b:9f:05:90:be:c4:91:8e:07:b5:
        b9:da:b3:96:cc:b0:3f:83:00:cc:a0:c7:4e:fa:34:ec:17:1e:
        30:e6:34:8e:12:30:b1:7a:8d:4c:0d:97:2e:1f:27:dc:b7:40:
        3c:11:a3:0e:4a:2c:f3:ae:89:9b:a5:69:9d:96:46:cd:c1:64:
        a0:40
-----BEGIN CERTIFICATE-----
MIIDNzCCAqCgAwIBAgICDDEwDQYJKoZIhvcNAQEFBQAwezELMAkGA1UEBhMCVVMx
FjAUBgNVBAgTDU1hc3NhY2h1c2V0dHMxLjAsBgNVBAoTJU1hc3NhY2h1c2V0dHMg
SW5zdGl0dXRlIG9mIFRlY2hub2xvZ3kxJDAiBgNVBAsTG01JVCBDZXJ0aWZpY2F0
aW9uIEF1dGhvcml0eTAeFw0wODExMTYxNzAwMDBaFw0wOTExMTYxNzAwMDBaMIHP
MQswCQYDVQQGEwJVUzEWMBQGA1UECBMNTWFzc2FjaHVzZXR0czESMBAGA1UEBxMJ
Q2FtYnJpZGdlMS4wLAYDVQQKEyVNYXNzYWNodXNldHRzIEluc3RpdHV0ZSBvZiBU
ZWNobm9sb2d5MS0wKwYDVQQLEyRTdHVkZW50IEluZm9ybWF0aW9uIFByb2Nlc3Np
bmcgQm9hcmQxFTATBgNVBAMTDGNkc2EubWl0LmVkdTEeMBwGCSqGSIb3DQEJARYP
c2NyaXB0c0BtaXQuZWR1MIGfMA0GCSqGSIb3DQEBAQUAA4GNADCBiQKBgQC1PiFN
wYlrAYxHgP6zNyd2+FJB5qI9S3Z45fJmPA+xrfuXjy6itlPTtg7iZvm5C7fOtNX1
HB9vIn1I9W3wFs2OSHnRFEoULy/4xL0dh899i1x3rVgksA6hbdYKx9i8L2dlyF3Y
2DHCZ0tK9KGlVIKvyzQIKgR/jnxMt9vcaopdgQIDAQABo3UwczAJBgNVHRMEAjAA
MBEGCWCGSAGG+EIBAQQEAwIF4DAnBgNVHSUEIDAeBggrBgEFBQcDAQYIKwYBBQUH
AwQGCCsGAQUFBwMCMAsGA1UdDwQEAwIF4DAdBgNVHQ4EFgQUVBF8CVVEHJRFqaJ2
RissJCZqROgwDQYJKoZIhvcNAQEFBQADgYEAHlrx54I1tEEpcbSvJD9azFpm2x9F
asGhWyUxy8ebV/G11wlZHLbQwztSuPLQe/C3i6Zjb9ydjCH4BX2FTKZ7nwWQvsSR
jge1udqzlsywP4MAzKDHTvo07BceMOY0jhIwsXqNTA2XLh8n3LdAPBGjDkos866J
m6VpnZZGzcFkoEA=
-----END CERTIFICATE-----

