From mitcert@MIT.EDU Sun Nov  8 17:26:06 2009
Date: Sun, 8 Nov 2009 17:25:12 -0500 (EST)
From: mitcert@MIT.EDU
To: scripts-root@mit.edu
Subject: certificate renewal request for scripts vhost cdsa.mit.edu  [help.mit.edu #1068235]

Certificate:
    Data:
        Version: 3 (0x2)
        Serial Number:
            13:1d:ea:54:04:ad:36:c4:fc:20:40:60:b4:a4:cc:6b
        Signature Algorithm: sha1WithRSAEncryption
        Issuer: C=US, ST=Massachusetts, O=Massachusetts Institute of Technology, OU=MIT Certification Authority
        Validity
            Not Before: Nov  7 17:00:00 2009 GMT
            Not After : Nov  8 17:00:00 2010 GMT
        Subject: C=US, ST=Massachusetts, L=Cambridge, O=Massachusetts Institute of Technology, OU=scripts.mit.edu web hosting service, CN=cdsa.mit.edu/emailAddress=scripts@mit.edu
        Subject Public Key Info:
            Public Key Algorithm: rsaEncryption
            RSA Public Key: (1024 bit)
                Modulus (1024 bit):
                    00:b5:3e:21:4d:c1:89:6b:01:8c:47:80:fe:b3:37:
                    27:76:f8:52:41:e6:a2:3d:4b:76:78:e5:f2:66:3c:
                    0f:b1:ad:fb:97:8f:2e:a2:b6:53:d3:b6:0e:e2:66:
                    f9:b9:0b:b7:ce:b4:d5:f5:1c:1f:6f:22:7d:48:f5:
                    6d:f0:16:cd:8e:48:79:d1:14:4a:14:2f:2f:f8:c4:
                    bd:1d:87:cf:7d:8b:5c:77:ad:58:24:b0:0e:a1:6d:
                    d6:0a:c7:d8:bc:2f:67:65:c8:5d:d8:d8:31:c2:67:
                    4b:4a:f4:a1:a5:54:82:af:cb:34:08:2a:04:7f:8e:
                    7c:4c:b7:db:dc:6a:8a:5d:81
                Exponent: 65537 (0x10001)
        X509v3 extensions:
            X509v3 Basic Constraints: 
                CA:FALSE
            Netscape Cert Type: 
                SSL Client, SSL Server, S/MIME
            X509v3 Extended Key Usage: 
                TLS Web Server Authentication, E-mail Protection, TLS Web Client Authentication
            X509v3 Key Usage: 
                Digital Signature, Non Repudiation, Key Encipherment
            X509v3 Subject Key Identifier: 
                54:11:7C:09:55:44:1C:94:45:A9:A2:76:46:2B:2C:24:26:6A:44:E8
            X509v3 CRL Distribution Points: 
                URI:http://ca.mit.edu/ca/mitserver.crl

    Signature Algorithm: sha1WithRSAEncryption
        d1:7a:17:80:9b:7e:0d:fa:8c:52:f6:f9:37:74:83:01:aa:79:
        60:80:d9:4f:c1:d8:f0:b0:75:4e:44:8c:8d:36:40:31:8c:21:
        cf:1f:55:e3:23:95:cf:9f:3b:77:7a:43:ea:03:da:77:23:81:
        04:30:6d:ee:14:cb:ff:a4:5b:5f:57:cd:d4:e1:f3:60:a0:a8:
        83:e2:81:44:57:79:ce:85:58:53:08:79:e2:db:8e:8f:91:e5:
        3e:c1:2b:1d:f0:1b:e4:33:67:31:6b:ca:bd:ec:79:75:5a:78:
        d6:45:3e:b3:68:21:3c:4b:3b:8f:b9:0b:67:14:fc:a5:05:5f:
        24:15
-----BEGIN CERTIFICATE-----
MIIDezCCAuSgAwIBAgIQEx3qVAStNsT8IEBgtKTMazANBgkqhkiG9w0BAQUFADB7
MQswCQYDVQQGEwJVUzEWMBQGA1UECBMNTWFzc2FjaHVzZXR0czEuMCwGA1UEChMl
TWFzc2FjaHVzZXR0cyBJbnN0aXR1dGUgb2YgVGVjaG5vbG9neTEkMCIGA1UECxMb
TUlUIENlcnRpZmljYXRpb24gQXV0aG9yaXR5MB4XDTA5MTEwNzE3MDAwMFoXDTEw
MTEwODE3MDAwMFowgc4xCzAJBgNVBAYTAlVTMRYwFAYDVQQIEw1NYXNzYWNodXNl
dHRzMRIwEAYDVQQHEwlDYW1icmlkZ2UxLjAsBgNVBAoTJU1hc3NhY2h1c2V0dHMg
SW5zdGl0dXRlIG9mIFRlY2hub2xvZ3kxLDAqBgNVBAsTI3NjcmlwdHMubWl0LmVk
dSB3ZWIgaG9zdGluZyBzZXJ2aWNlMRUwEwYDVQQDEwxjZHNhLm1pdC5lZHUxHjAc
BgkqhkiG9w0BCQEWD3NjcmlwdHNAbWl0LmVkdTCBnzANBgkqhkiG9w0BAQEFAAOB
jQAwgYkCgYEAtT4hTcGJawGMR4D+szcndvhSQeaiPUt2eOXyZjwPsa37l48uorZT
07YO4mb5uQu3zrTV9RwfbyJ9SPVt8BbNjkh50RRKFC8v+MS9HYfPfYtcd61YJLAO
oW3WCsfYvC9nZchd2NgxwmdLSvShpVSCr8s0CCoEf458TLfb3GqKXYECAwEAAaOB
qzCBqDAJBgNVHRMEAjAAMBEGCWCGSAGG+EIBAQQEAwIF4DAnBgNVHSUEIDAeBggr
BgEFBQcDAQYIKwYBBQUHAwQGCCsGAQUFBwMCMAsGA1UdDwQEAwIF4DAdBgNVHQ4E
FgQUVBF8CVVEHJRFqaJ2RissJCZqROgwMwYDVR0fBCwwKjAooCagJIYiaHR0cDov
L2NhLm1pdC5lZHUvY2EvbWl0c2VydmVyLmNybDANBgkqhkiG9w0BAQUFAAOBgQDR
eheAm34N+oxS9vk3dIMBqnlggNlPwdjwsHVORIyNNkAxjCHPH1XjI5XPnzt3ekPq
A9p3I4EEMG3uFMv/pFtfV83U4fNgoKiD4oFEV3nOhVhTCHni246PkeU+wSsd8Bvk
M2cxa8q97Hl1WnjWRT6zaCE8SzuPuQtnFPylBV8kFQ==
-----END CERTIFICATE-----

