From mitcert@MIT.EDU Fri Feb  5 08:07:03 2010
Date: Fri, 5 Feb 2010 08:06:58 -0500 (EST)
From: mitcert@MIT.EDU
To: mitchb@mit.edu
Subject: Certificate signing request for classmates.mit.edu  [help.mit.edu #1147075]

Certificate:
    Data:
        Version: 3 (0x2)
        Serial Number:
            49:3a:e1:ca:3d:5b:b1:a9:2e:c4:33:7d:55:bf:14:16
        Signature Algorithm: sha1WithRSAEncryption
        Issuer: C=US, ST=Massachusetts, O=Massachusetts Institute of Technology, OU=MIT Certification Authority
        Validity
            Not Before: Feb  3 17:00:00 2010 GMT
            Not After : Feb  3 17:00:00 2011 GMT
        Subject: C=US, ST=Massachusetts, L=Cambridge, O=Massachusetts Institute of Technology, OU=scripts.mit.edu web hosting service, CN=classmates.mit.edu/emailAddress=scripts@mit.edu
        Subject Public Key Info:
            Public Key Algorithm: rsaEncryption
            RSA Public Key: (1024 bit)
                Modulus (1024 bit):
                    00:b5:3e:21:4d:c1:89:6b:01:8c:47:80:fe:b3:37:
                    27:76:f8:52:41:e6:a2:3d:4b:76:78:e5:f2:66:3c:
                    0f:b1:ad:fb:97:8f:2e:a2:b6:53:d3:b6:0e:e2:66:
                    f9:b9:0b:b7:ce:b4:d5:f5:1c:1f:6f:22:7d:48:f5:
                    6d:f0:16:cd:8e:48:79:d1:14:4a:14:2f:2f:f8:c4:
                    bd:1d:87:cf:7d:8b:5c:77:ad:58:24:b0:0e:a1:6d:
                    d6:0a:c7:d8:bc:2f:67:65:c8:5d:d8:d8:31:c2:67:
                    4b:4a:f4:a1:a5:54:82:af:cb:34:08:2a:04:7f:8e:
                    7c:4c:b7:db:dc:6a:8a:5d:81
                Exponent: 65537 (0x10001)
        X509v3 extensions:
            X509v3 Basic Constraints: 
                CA:FALSE
            Netscape Cert Type: 
                SSL Client, SSL Server, S/MIME
            X509v3 Extended Key Usage: 
                TLS Web Server Authentication, E-mail Protection, TLS Web Client Authentication
            X509v3 Key Usage: 
                Digital Signature, Non Repudiation, Key Encipherment
            X509v3 Subject Key Identifier: 
                54:11:7C:09:55:44:1C:94:45:A9:A2:76:46:2B:2C:24:26:6A:44:E8
            X509v3 CRL Distribution Points: 
                URI:http://ca.mit.edu/ca/mitserver.crl

    Signature Algorithm: sha1WithRSAEncryption
        12:7c:b7:f4:1a:44:68:d0:55:b5:35:83:db:bf:0c:e3:b3:2c:
        9a:86:8f:1f:c4:da:57:85:98:68:22:d6:ed:f8:90:f7:08:08:
        1c:af:30:78:cb:ff:e2:8d:c3:3d:ad:ed:c2:ae:81:6f:73:96:
        06:31:2d:a0:10:de:c5:3c:95:68:54:7f:76:de:ff:cb:df:f8:
        96:2b:b3:4d:56:aa:c7:fc:34:2f:af:b1:f6:56:a1:aa:45:c2:
        d0:ad:6c:14:91:69:21:94:c5:4a:af:48:45:18:14:6e:36:7c:
        e7:1e:c7:6a:3a:1c:cc:38:2d:81:e9:5a:ed:14:3c:97:72:87:
        0c:fa
-----BEGIN CERTIFICATE-----
MIIDgTCCAuqgAwIBAgIQSTrhyj1bsakuxDN9Vb8UFjANBgkqhkiG9w0BAQUFADB7
MQswCQYDVQQGEwJVUzEWMBQGA1UECBMNTWFzc2FjaHVzZXR0czEuMCwGA1UEChMl
TWFzc2FjaHVzZXR0cyBJbnN0aXR1dGUgb2YgVGVjaG5vbG9neTEkMCIGA1UECxMb
TUlUIENlcnRpZmljYXRpb24gQXV0aG9yaXR5MB4XDTEwMDIwMzE3MDAwMFoXDTEx
MDIwMzE3MDAwMFowgdQxCzAJBgNVBAYTAlVTMRYwFAYDVQQIEw1NYXNzYWNodXNl
dHRzMRIwEAYDVQQHEwlDYW1icmlkZ2UxLjAsBgNVBAoTJU1hc3NhY2h1c2V0dHMg
SW5zdGl0dXRlIG9mIFRlY2hub2xvZ3kxLDAqBgNVBAsTI3NjcmlwdHMubWl0LmVk
dSB3ZWIgaG9zdGluZyBzZXJ2aWNlMRswGQYDVQQDExJjbGFzc21hdGVzLm1pdC5l
ZHUxHjAcBgkqhkiG9w0BCQEWD3NjcmlwdHNAbWl0LmVkdTCBnzANBgkqhkiG9w0B
AQEFAAOBjQAwgYkCgYEAtT4hTcGJawGMR4D+szcndvhSQeaiPUt2eOXyZjwPsa37
l48uorZT07YO4mb5uQu3zrTV9RwfbyJ9SPVt8BbNjkh50RRKFC8v+MS9HYfPfYtc
d61YJLAOoW3WCsfYvC9nZchd2NgxwmdLSvShpVSCr8s0CCoEf458TLfb3GqKXYEC
AwEAAaOBqzCBqDAJBgNVHRMEAjAAMBEGCWCGSAGG+EIBAQQEAwIF4DAnBgNVHSUE
IDAeBggrBgEFBQcDAQYIKwYBBQUHAwQGCCsGAQUFBwMCMAsGA1UdDwQEAwIF4DAd
BgNVHQ4EFgQUVBF8CVVEHJRFqaJ2RissJCZqROgwMwYDVR0fBCwwKjAooCagJIYi
aHR0cDovL2NhLm1pdC5lZHUvY2EvbWl0c2VydmVyLmNybDANBgkqhkiG9w0BAQUF
AAOBgQASfLf0GkRo0FW1NYPbvwzjsyyaho8fxNpXhZhoItbt+JD3CAgcrzB4y//i
jcM9re3CroFvc5YGMS2gEN7FPJVoVH923v/L3/iWK7NNVqrH/DQvr7H2VqGqRcLQ
rWwUkWkhlMVKr0hFGBRuNnznHsdqOhzMOC2B6VrtFDyXcocM+g==
-----END CERTIFICATE-----

