From mitcert@MIT.EDU Tue Jan 13 20:26:57 2009
Date: Tue, 13 Jan 2009 20:26:49 -0500 (EST)
From: mitcert@MIT.EDU
To: geofft@mit.edu
Subject: CSR for scripts vhost debathena.mit.edu  [help.mit.edu #786056]

Certificate:
    Data:
        Version: 3 (0x2)
        Serial Number: 3231 (0xc9f)
        Signature Algorithm: sha1WithRSAEncryption
        Issuer: C=US, ST=Massachusetts, O=Massachusetts Institute of Technology, OU=MIT Certification Authority
        Validity
            Not Before: Jan 12 17:00:00 2009 GMT
            Not After : Jan 12 17:00:00 2010 GMT
        Subject: C=US, ST=Massachusetts, L=Cambridge, O=Massachusetts Institute of Technology, OU=Student Information Processing Board, CN=debathena.mit.edu/Email=scripts@mit.edu
        Subject Public Key Info:
            Public Key Algorithm: rsaEncryption
            RSA Public Key: (1024 bit)
                Modulus (1024 bit):
                    00:b5:3e:21:4d:c1:89:6b:01:8c:47:80:fe:b3:37:
                    27:76:f8:52:41:e6:a2:3d:4b:76:78:e5:f2:66:3c:
                    0f:b1:ad:fb:97:8f:2e:a2:b6:53:d3:b6:0e:e2:66:
                    f9:b9:0b:b7:ce:b4:d5:f5:1c:1f:6f:22:7d:48:f5:
                    6d:f0:16:cd:8e:48:79:d1:14:4a:14:2f:2f:f8:c4:
                    bd:1d:87:cf:7d:8b:5c:77:ad:58:24:b0:0e:a1:6d:
                    d6:0a:c7:d8:bc:2f:67:65:c8:5d:d8:d8:31:c2:67:
                    4b:4a:f4:a1:a5:54:82:af:cb:34:08:2a:04:7f:8e:
                    7c:4c:b7:db:dc:6a:8a:5d:81
                Exponent: 65537 (0x10001)
        X509v3 extensions:
            X509v3 Basic Constraints: 
                CA:FALSE
            Netscape Cert Type: 
                SSL Client, SSL Server, S/MIME
            X509v3 Extended Key Usage: 
                TLS Web Server Authentication, E-mail Protection, TLS Web Client Authentication
            X509v3 Key Usage: 
                Digital Signature, Non Repudiation, Key Encipherment
            X509v3 Subject Key Identifier: 
                54:11:7C:09:55:44:1C:94:45:A9:A2:76:46:2B:2C:24:26:6A:44:E8
    Signature Algorithm: sha1WithRSAEncryption
        6c:7b:1f:b3:f9:0c:03:3a:15:50:48:c4:ab:55:17:05:e5:7a:
        20:b8:44:fa:a3:40:fc:79:54:33:83:d2:d0:7b:71:b8:0d:ce:
        ca:ec:07:c0:21:78:59:41:2f:98:6c:61:3d:b1:f1:63:00:b2:
        1c:a4:9d:d7:88:4b:96:53:f2:7e:d0:e0:14:01:b2:57:8a:d7:
        90:30:66:e3:f8:9b:f1:78:ab:98:09:d3:f3:67:37:d9:cb:6e:
        ab:76:b3:a3:7b:21:ff:9f:11:90:03:05:e2:88:f3:f9:1b:eb:
        9b:1b:db:82:e5:ca:81:47:90:ed:6a:d3:d6:8f:9f:89:49:39:
        1e:1d
-----BEGIN CERTIFICATE-----
MIIDPDCCAqWgAwIBAgICDJ8wDQYJKoZIhvcNAQEFBQAwezELMAkGA1UEBhMCVVMx
FjAUBgNVBAgTDU1hc3NhY2h1c2V0dHMxLjAsBgNVBAoTJU1hc3NhY2h1c2V0dHMg
SW5zdGl0dXRlIG9mIFRlY2hub2xvZ3kxJDAiBgNVBAsTG01JVCBDZXJ0aWZpY2F0
aW9uIEF1dGhvcml0eTAeFw0wOTAxMTIxNzAwMDBaFw0xMDAxMTIxNzAwMDBaMIHU
MQswCQYDVQQGEwJVUzEWMBQGA1UECBMNTWFzc2FjaHVzZXR0czESMBAGA1UEBxMJ
Q2FtYnJpZGdlMS4wLAYDVQQKEyVNYXNzYWNodXNldHRzIEluc3RpdHV0ZSBvZiBU
ZWNobm9sb2d5MS0wKwYDVQQLEyRTdHVkZW50IEluZm9ybWF0aW9uIFByb2Nlc3Np
bmcgQm9hcmQxGjAYBgNVBAMTEWRlYmF0aGVuYS5taXQuZWR1MR4wHAYJKoZIhvcN
AQkBFg9zY3JpcHRzQG1pdC5lZHUwgZ8wDQYJKoZIhvcNAQEBBQADgY0AMIGJAoGB
ALU+IU3BiWsBjEeA/rM3J3b4UkHmoj1Ldnjl8mY8D7Gt+5ePLqK2U9O2DuJm+bkL
t8601fUcH28ifUj1bfAWzY5IedEUShQvL/jEvR2Hz32LXHetWCSwDqFt1grH2Lwv
Z2XIXdjYMcJnS0r0oaVUgq/LNAgqBH+OfEy329xqil2BAgMBAAGjdTBzMAkGA1Ud
EwQCMAAwEQYJYIZIAYb4QgEBBAQDAgXgMCcGA1UdJQQgMB4GCCsGAQUFBwMBBggr
BgEFBQcDBAYIKwYBBQUHAwIwCwYDVR0PBAQDAgXgMB0GA1UdDgQWBBRUEXwJVUQc
lEWponZGKywkJmpE6DANBgkqhkiG9w0BAQUFAAOBgQBsex+z+QwDOhVQSMSrVRcF
5XoguET6o0D8eVQzg9LQe3G4Dc7K7AfAIXhZQS+YbGE9sfFjALIcpJ3XiEuWU/J+
0OAUAbJXiteQMGbj+JvxeKuYCdPzZzfZy26rdrOjeyH/nxGQAwXiiPP5G+ubG9uC
5cqBR5DtatPWj5+JSTkeHQ==
-----END CERTIFICATE-----

