From mitcert@MIT.EDU Fri Dec 24 10:55:50 2010
Date: Fri, 24 Dec 2010 10:55:49 -0500 (EST)
From: mitcert@MIT.EDU
To: mitchb@mit.edu
Subject: Certificate signing request for debathena.mit.edu  [help.mit.edu #1439484]

Certificate:
    Data:
        Version: 3 (0x2)
        Serial Number:
            97:33:25:86:14:7b:cb:f8:59:da:fd:ae:c5:39:16:2d
        Signature Algorithm: sha1WithRSAEncryption
        Issuer: C=US, ST=Massachusetts, O=Massachusetts Institute of Technology, OU=MIT Certification Authority
        Validity
            Not Before: Dec 22 17:00:00 2010 GMT
            Not After : Dec 22 17:00:00 2011 GMT
        Subject: C=US, ST=Massachusetts, L=Cambridge, O=Massachusetts Institute of Technology, OU=scripts.mit.edu web hosting service, CN=debathena.mit.edu/emailAddress=scripts@mit.edu
        Subject Public Key Info:
            Public Key Algorithm: rsaEncryption
            RSA Public Key: (1024 bit)
                Modulus (1024 bit):
                    00:b5:3e:21:4d:c1:89:6b:01:8c:47:80:fe:b3:37:
                    27:76:f8:52:41:e6:a2:3d:4b:76:78:e5:f2:66:3c:
                    0f:b1:ad:fb:97:8f:2e:a2:b6:53:d3:b6:0e:e2:66:
                    f9:b9:0b:b7:ce:b4:d5:f5:1c:1f:6f:22:7d:48:f5:
                    6d:f0:16:cd:8e:48:79:d1:14:4a:14:2f:2f:f8:c4:
                    bd:1d:87:cf:7d:8b:5c:77:ad:58:24:b0:0e:a1:6d:
                    d6:0a:c7:d8:bc:2f:67:65:c8:5d:d8:d8:31:c2:67:
                    4b:4a:f4:a1:a5:54:82:af:cb:34:08:2a:04:7f:8e:
                    7c:4c:b7:db:dc:6a:8a:5d:81
                Exponent: 65537 (0x10001)
        X509v3 extensions:
            X509v3 Basic Constraints: 
                CA:FALSE
            Netscape Cert Type: 
                SSL Client, SSL Server, S/MIME
            X509v3 Extended Key Usage: 
                TLS Web Server Authentication, E-mail Protection, TLS Web Client Authentication
            X509v3 Key Usage: 
                Digital Signature, Non Repudiation, Key Encipherment
            X509v3 Subject Key Identifier: 
                54:11:7C:09:55:44:1C:94:45:A9:A2:76:46:2B:2C:24:26:6A:44:E8
            X509v3 CRL Distribution Points: 
                URI:http://ca.mit.edu/ca/mitserver.crl

    Signature Algorithm: sha1WithRSAEncryption
        6a:65:fb:a5:d2:ea:36:53:a6:91:cf:1c:f8:f1:31:30:23:a3:
        64:68:2e:bc:91:f7:ae:af:ac:00:7b:84:e7:e2:a1:99:34:26:
        36:95:3e:fa:ca:fe:02:81:b6:6e:f4:c4:70:64:03:2a:bf:ad:
        92:ea:ba:cc:3e:a4:54:4a:77:47:41:51:07:f1:1e:2a:b6:1c:
        46:32:d4:56:86:bb:1a:2f:08:37:e7:77:b3:a8:e1:58:2e:2d:
        43:34:4f:33:ff:40:72:7b:f1:e1:b2:a1:dd:09:64:fb:44:59:
        fe:2b:eb:4b:32:15:6f:d0:f4:2e:c4:2d:79:20:e7:9b:1c:64:
        3c:2d
-----BEGIN CERTIFICATE-----
MIIDgTCCAuqgAwIBAgIRAJczJYYUe8v4Wdr9rsU5Fi0wDQYJKoZIhvcNAQEFBQAw
ezELMAkGA1UEBhMCVVMxFjAUBgNVBAgTDU1hc3NhY2h1c2V0dHMxLjAsBgNVBAoT
JU1hc3NhY2h1c2V0dHMgSW5zdGl0dXRlIG9mIFRlY2hub2xvZ3kxJDAiBgNVBAsT
G01JVCBDZXJ0aWZpY2F0aW9uIEF1dGhvcml0eTAeFw0xMDEyMjIxNzAwMDBaFw0x
MTEyMjIxNzAwMDBaMIHTMQswCQYDVQQGEwJVUzEWMBQGA1UECBMNTWFzc2FjaHVz
ZXR0czESMBAGA1UEBxMJQ2FtYnJpZGdlMS4wLAYDVQQKEyVNYXNzYWNodXNldHRz
IEluc3RpdHV0ZSBvZiBUZWNobm9sb2d5MSwwKgYDVQQLEyNzY3JpcHRzLm1pdC5l
ZHUgd2ViIGhvc3Rpbmcgc2VydmljZTEaMBgGA1UEAxMRZGViYXRoZW5hLm1pdC5l
ZHUxHjAcBgkqhkiG9w0BCQEWD3NjcmlwdHNAbWl0LmVkdTCBnzANBgkqhkiG9w0B
AQEFAAOBjQAwgYkCgYEAtT4hTcGJawGMR4D+szcndvhSQeaiPUt2eOXyZjwPsa37
l48uorZT07YO4mb5uQu3zrTV9RwfbyJ9SPVt8BbNjkh50RRKFC8v+MS9HYfPfYtc
d61YJLAOoW3WCsfYvC9nZchd2NgxwmdLSvShpVSCr8s0CCoEf458TLfb3GqKXYEC
AwEAAaOBqzCBqDAJBgNVHRMEAjAAMBEGCWCGSAGG+EIBAQQEAwIF4DAnBgNVHSUE
IDAeBggrBgEFBQcDAQYIKwYBBQUHAwQGCCsGAQUFBwMCMAsGA1UdDwQEAwIF4DAd
BgNVHQ4EFgQUVBF8CVVEHJRFqaJ2RissJCZqROgwMwYDVR0fBCwwKjAooCagJIYi
aHR0cDovL2NhLm1pdC5lZHUvY2EvbWl0c2VydmVyLmNybDANBgkqhkiG9w0BAQUF
AAOBgQBqZful0uo2U6aRzxz48TEwI6NkaC68kfeur6wAe4Tn4qGZNCY2lT76yv4C
gbZu9MRwZAMqv62S6rrMPqRUSndHQVEH8R4qthxGMtRWhrsaLwg353ezqOFYLi1D
NE8z/0Bye/HhsqHdCWT7RFn+K+tLMhVv0PQuxC15IOebHGQ8LQ==
-----END CERTIFICATE-----

