From mitcert@MIT.EDU Thu Jan  7 18:31:45 2010
Date: Thu, 7 Jan 2010 18:30:59 -0500 (EST)
From: mitcert@MIT.EDU
To: mitchb@mit.edu
Subject: Certificate signing request for debathena.mit.edu  [help.mit.edu #1118821]

Certificate:
    Data:
        Version: 3 (0x2)
        Serial Number:
            e7:86:14:79:02:3f:eb:d3:3e:51:cb:b5:62:d7:dd:a8
        Signature Algorithm: sha1WithRSAEncryption
        Issuer: C=US, ST=Massachusetts, O=Massachusetts Institute of Technology, OU=MIT Certification Authority
        Validity
            Not Before: Jan  6 17:00:00 2010 GMT
            Not After : Jan  6 17:00:00 2011 GMT
        Subject: C=US, ST=Massachusetts, L=Cambridge, O=Massachusetts Institute of Technology, OU=scripts.mit.edu web hosting service, CN=debathena.mit.edu/emailAddress=scripts@mit.edu
        Subject Public Key Info:
            Public Key Algorithm: rsaEncryption
            RSA Public Key: (1024 bit)
                Modulus (1024 bit):
                    00:b5:3e:21:4d:c1:89:6b:01:8c:47:80:fe:b3:37:
                    27:76:f8:52:41:e6:a2:3d:4b:76:78:e5:f2:66:3c:
                    0f:b1:ad:fb:97:8f:2e:a2:b6:53:d3:b6:0e:e2:66:
                    f9:b9:0b:b7:ce:b4:d5:f5:1c:1f:6f:22:7d:48:f5:
                    6d:f0:16:cd:8e:48:79:d1:14:4a:14:2f:2f:f8:c4:
                    bd:1d:87:cf:7d:8b:5c:77:ad:58:24:b0:0e:a1:6d:
                    d6:0a:c7:d8:bc:2f:67:65:c8:5d:d8:d8:31:c2:67:
                    4b:4a:f4:a1:a5:54:82:af:cb:34:08:2a:04:7f:8e:
                    7c:4c:b7:db:dc:6a:8a:5d:81
                Exponent: 65537 (0x10001)
        X509v3 extensions:
            X509v3 Basic Constraints: 
                CA:FALSE
            Netscape Cert Type: 
                SSL Client, SSL Server, S/MIME
            X509v3 Extended Key Usage: 
                TLS Web Server Authentication, E-mail Protection, TLS Web Client Authentication
            X509v3 Key Usage: 
                Digital Signature, Non Repudiation, Key Encipherment
            X509v3 Subject Key Identifier: 
                54:11:7C:09:55:44:1C:94:45:A9:A2:76:46:2B:2C:24:26:6A:44:E8
            X509v3 CRL Distribution Points: 
                URI:http://ca.mit.edu/ca/mitserver.crl

    Signature Algorithm: sha1WithRSAEncryption
        62:21:78:8e:d5:d0:a2:94:16:99:b6:83:e6:47:5c:2f:72:e1:
        2f:ae:fa:e3:c8:f0:1e:c2:e3:89:1e:ba:ed:42:b4:1d:15:0a:
        e9:5a:5b:3b:43:5e:0e:65:ed:93:43:9b:e7:20:94:c4:3b:a6:
        c9:04:11:c2:84:0d:3d:60:6b:fd:ea:24:81:d1:c5:7d:9c:49:
        16:d5:bc:57:fc:78:89:e6:5f:12:58:6c:f7:db:ca:5c:68:68:
        f5:4e:2d:3c:0e:7a:9d:0a:6e:41:32:cd:38:de:51:5b:a5:a0:
        cc:98:22:ac:56:b2:d3:cd:3a:b1:d4:f7:18:b4:b7:06:e5:67:
        15:a3
-----BEGIN CERTIFICATE-----
MIIDgTCCAuqgAwIBAgIRAOeGFHkCP+vTPlHLtWLX3agwDQYJKoZIhvcNAQEFBQAw
ezELMAkGA1UEBhMCVVMxFjAUBgNVBAgTDU1hc3NhY2h1c2V0dHMxLjAsBgNVBAoT
JU1hc3NhY2h1c2V0dHMgSW5zdGl0dXRlIG9mIFRlY2hub2xvZ3kxJDAiBgNVBAsT
G01JVCBDZXJ0aWZpY2F0aW9uIEF1dGhvcml0eTAeFw0xMDAxMDYxNzAwMDBaFw0x
MTAxMDYxNzAwMDBaMIHTMQswCQYDVQQGEwJVUzEWMBQGA1UECBMNTWFzc2FjaHVz
ZXR0czESMBAGA1UEBxMJQ2FtYnJpZGdlMS4wLAYDVQQKEyVNYXNzYWNodXNldHRz
IEluc3RpdHV0ZSBvZiBUZWNobm9sb2d5MSwwKgYDVQQLEyNzY3JpcHRzLm1pdC5l
ZHUgd2ViIGhvc3Rpbmcgc2VydmljZTEaMBgGA1UEAxMRZGViYXRoZW5hLm1pdC5l
ZHUxHjAcBgkqhkiG9w0BCQEWD3NjcmlwdHNAbWl0LmVkdTCBnzANBgkqhkiG9w0B
AQEFAAOBjQAwgYkCgYEAtT4hTcGJawGMR4D+szcndvhSQeaiPUt2eOXyZjwPsa37
l48uorZT07YO4mb5uQu3zrTV9RwfbyJ9SPVt8BbNjkh50RRKFC8v+MS9HYfPfYtc
d61YJLAOoW3WCsfYvC9nZchd2NgxwmdLSvShpVSCr8s0CCoEf458TLfb3GqKXYEC
AwEAAaOBqzCBqDAJBgNVHRMEAjAAMBEGCWCGSAGG+EIBAQQEAwIF4DAnBgNVHSUE
IDAeBggrBgEFBQcDAQYIKwYBBQUHAwQGCCsGAQUFBwMCMAsGA1UdDwQEAwIF4DAd
BgNVHQ4EFgQUVBF8CVVEHJRFqaJ2RissJCZqROgwMwYDVR0fBCwwKjAooCagJIYi
aHR0cDovL2NhLm1pdC5lZHUvY2EvbWl0c2VydmVyLmNybDANBgkqhkiG9w0BAQUF
AAOBgQBiIXiO1dCilBaZtoPmR1wvcuEvrvrjyPAewuOJHrrtQrQdFQrpWls7Q14O
Ze2TQ5vnIJTEO6bJBBHChA09YGv96iSB0cV9nEkW1bxX/HiJ5l8SWGz328pcaGj1
Ti08DnqdCm5BMs043lFbpaDMmCKsVrLTzTqx1PcYtLcG5WcVow==
-----END CERTIFICATE-----

