From mitcert@MIT.EDU Thu Feb 12 11:49:58 2009
Date: Thu, 12 Feb 2009 11:49:49 -0500 (EST)
From: mitcert@MIT.EDU
To: geofft@mit.edu
Subject: CSR for scripts vhost eastgate.mit.edu  [help.mit.edu #807896]

Certificate:
    Data:
        Version: 3 (0x2)
        Serial Number: 3292 (0xcdc)
        Signature Algorithm: sha1WithRSAEncryption
        Issuer: C=US, ST=Massachusetts, O=Massachusetts Institute of Technology, OU=MIT Certification Authority
        Validity
            Not Before: Feb 10 17:00:00 2009 GMT
            Not After : Feb 10 17:00:00 2010 GMT
        Subject: C=US, ST=Massachusetts, L=Cambridge, O=Massachusetts Institute of Technology, OU=Student Information Processing Board, CN=eastgate.mit.edu/Email=scripts@mit.edu
        Subject Public Key Info:
            Public Key Algorithm: rsaEncryption
            RSA Public Key: (1024 bit)
                Modulus (1024 bit):
                    00:b5:3e:21:4d:c1:89:6b:01:8c:47:80:fe:b3:37:
                    27:76:f8:52:41:e6:a2:3d:4b:76:78:e5:f2:66:3c:
                    0f:b1:ad:fb:97:8f:2e:a2:b6:53:d3:b6:0e:e2:66:
                    f9:b9:0b:b7:ce:b4:d5:f5:1c:1f:6f:22:7d:48:f5:
                    6d:f0:16:cd:8e:48:79:d1:14:4a:14:2f:2f:f8:c4:
                    bd:1d:87:cf:7d:8b:5c:77:ad:58:24:b0:0e:a1:6d:
                    d6:0a:c7:d8:bc:2f:67:65:c8:5d:d8:d8:31:c2:67:
                    4b:4a:f4:a1:a5:54:82:af:cb:34:08:2a:04:7f:8e:
                    7c:4c:b7:db:dc:6a:8a:5d:81
                Exponent: 65537 (0x10001)
        X509v3 extensions:
            X509v3 Basic Constraints: 
                CA:FALSE
            Netscape Cert Type: 
                SSL Client, SSL Server, S/MIME
            X509v3 Extended Key Usage: 
                TLS Web Server Authentication, E-mail Protection, TLS Web Client Authentication
            X509v3 Key Usage: 
                Digital Signature, Non Repudiation, Key Encipherment
            X509v3 Subject Key Identifier: 
                54:11:7C:09:55:44:1C:94:45:A9:A2:76:46:2B:2C:24:26:6A:44:E8
    Signature Algorithm: sha1WithRSAEncryption
        41:50:fd:af:57:02:1a:fb:01:f4:ec:52:49:e1:fa:58:78:b4:
        e2:04:2b:1e:87:b3:27:ba:27:23:35:a0:76:09:01:6e:63:ff:
        7e:f0:b1:70:13:d2:70:90:65:c7:14:3b:aa:36:ca:3d:02:b9:
        5d:3a:12:23:d6:76:8a:87:e2:48:e8:00:95:31:28:ed:e3:04:
        80:67:01:7c:90:9a:d1:1b:31:07:5a:75:64:8c:0b:f9:70:7d:
        52:8b:28:6b:a7:a5:71:9e:aa:1a:ae:1c:b1:10:5b:c7:e6:b8:
        30:54:48:74:cb:dd:88:e9:ad:f2:43:2e:89:b6:35:2b:23:f1:
        70:b7
-----BEGIN CERTIFICATE-----
MIIDOzCCAqSgAwIBAgICDNwwDQYJKoZIhvcNAQEFBQAwezELMAkGA1UEBhMCVVMx
FjAUBgNVBAgTDU1hc3NhY2h1c2V0dHMxLjAsBgNVBAoTJU1hc3NhY2h1c2V0dHMg
SW5zdGl0dXRlIG9mIFRlY2hub2xvZ3kxJDAiBgNVBAsTG01JVCBDZXJ0aWZpY2F0
aW9uIEF1dGhvcml0eTAeFw0wOTAyMTAxNzAwMDBaFw0xMDAyMTAxNzAwMDBaMIHT
MQswCQYDVQQGEwJVUzEWMBQGA1UECBMNTWFzc2FjaHVzZXR0czESMBAGA1UEBxMJ
Q2FtYnJpZGdlMS4wLAYDVQQKEyVNYXNzYWNodXNldHRzIEluc3RpdHV0ZSBvZiBU
ZWNobm9sb2d5MS0wKwYDVQQLEyRTdHVkZW50IEluZm9ybWF0aW9uIFByb2Nlc3Np
bmcgQm9hcmQxGTAXBgNVBAMTEGVhc3RnYXRlLm1pdC5lZHUxHjAcBgkqhkiG9w0B
CQEWD3NjcmlwdHNAbWl0LmVkdTCBnzANBgkqhkiG9w0BAQEFAAOBjQAwgYkCgYEA
tT4hTcGJawGMR4D+szcndvhSQeaiPUt2eOXyZjwPsa37l48uorZT07YO4mb5uQu3
zrTV9RwfbyJ9SPVt8BbNjkh50RRKFC8v+MS9HYfPfYtcd61YJLAOoW3WCsfYvC9n
Zchd2NgxwmdLSvShpVSCr8s0CCoEf458TLfb3GqKXYECAwEAAaN1MHMwCQYDVR0T
BAIwADARBglghkgBhvhCAQEEBAMCBeAwJwYDVR0lBCAwHgYIKwYBBQUHAwEGCCsG
AQUFBwMEBggrBgEFBQcDAjALBgNVHQ8EBAMCBeAwHQYDVR0OBBYEFFQRfAlVRByU
RamidkYrLCQmakToMA0GCSqGSIb3DQEBBQUAA4GBAEFQ/a9XAhr7AfTsUknh+lh4
tOIEKx6Hsye6JyM1oHYJAW5j/37wsXAT0nCQZccUO6o2yj0CuV06EiPWdoqH4kjo
AJUxKO3jBIBnAXyQmtEbMQdadWSMC/lwfVKLKGunpXGeqhquHLEQW8fmuDBUSHTL
3YjprfJDLom2NSsj8XC3
-----END CERTIFICATE-----

