From mitcert@MIT.EDU Thu Jan 28 09:25:18 2010
Date: Thu, 28 Jan 2010 09:25:14 -0500 (EST)
From: mitcert@MIT.EDU
To: mitchb@mit.edu
Subject: Certificate signing request for eastgate.mit.edu  [help.mit.edu #1138211]

Certificate:
    Data:
        Version: 3 (0x2)
        Serial Number:
            f0:0b:54:90:5d:e7:d5:bc:b2:3f:b7:7f:0d:28:4e:25
        Signature Algorithm: sha1WithRSAEncryption
        Issuer: C=US, ST=Massachusetts, O=Massachusetts Institute of Technology, OU=MIT Certification Authority
        Validity
            Not Before: Jan 26 17:00:00 2010 GMT
            Not After : Jan 27 17:00:00 2011 GMT
        Subject: C=US, ST=Massachusetts, L=Cambridge, O=Massachusetts Institute of Technology, OU=scripts.mit.edu web hosting service, CN=eastgate.mit.edu/emailAddress=scripts@mit.edu
        Subject Public Key Info:
            Public Key Algorithm: rsaEncryption
            RSA Public Key: (1024 bit)
                Modulus (1024 bit):
                    00:b5:3e:21:4d:c1:89:6b:01:8c:47:80:fe:b3:37:
                    27:76:f8:52:41:e6:a2:3d:4b:76:78:e5:f2:66:3c:
                    0f:b1:ad:fb:97:8f:2e:a2:b6:53:d3:b6:0e:e2:66:
                    f9:b9:0b:b7:ce:b4:d5:f5:1c:1f:6f:22:7d:48:f5:
                    6d:f0:16:cd:8e:48:79:d1:14:4a:14:2f:2f:f8:c4:
                    bd:1d:87:cf:7d:8b:5c:77:ad:58:24:b0:0e:a1:6d:
                    d6:0a:c7:d8:bc:2f:67:65:c8:5d:d8:d8:31:c2:67:
                    4b:4a:f4:a1:a5:54:82:af:cb:34:08:2a:04:7f:8e:
                    7c:4c:b7:db:dc:6a:8a:5d:81
                Exponent: 65537 (0x10001)
        X509v3 extensions:
            X509v3 Basic Constraints: 
                CA:FALSE
            Netscape Cert Type: 
                SSL Client, SSL Server, S/MIME
            X509v3 Extended Key Usage: 
                TLS Web Server Authentication, E-mail Protection, TLS Web Client Authentication
            X509v3 Key Usage: 
                Digital Signature, Non Repudiation, Key Encipherment
            X509v3 Subject Key Identifier: 
                54:11:7C:09:55:44:1C:94:45:A9:A2:76:46:2B:2C:24:26:6A:44:E8
            X509v3 CRL Distribution Points: 
                URI:http://ca.mit.edu/ca/mitserver.crl

    Signature Algorithm: sha1WithRSAEncryption
        a9:db:1b:92:e0:f0:6c:63:26:39:f0:a8:3e:ac:93:99:bd:bd:
        2b:8a:7d:b1:bd:33:03:7c:b5:29:95:32:fc:03:54:1d:13:d9:
        09:63:ab:f8:18:7e:a0:28:b3:da:8c:06:a1:7c:53:f6:0f:9d:
        f8:f3:2c:34:4d:19:52:fb:05:71:f3:88:85:a8:4e:97:fa:56:
        60:ee:ab:33:3a:45:52:60:3c:c3:2e:ed:a9:87:34:b7:11:a1:
        3f:cf:b1:1d:4f:c5:3b:86:63:5e:10:45:92:d9:4c:f3:f9:5e:
        0f:5c:bb:be:7d:34:64:62:54:45:71:d3:26:d8:ec:c5:90:c5:
        5d:62
-----BEGIN CERTIFICATE-----
MIIDgDCCAumgAwIBAgIRAPALVJBd59W8sj+3fw0oTiUwDQYJKoZIhvcNAQEFBQAw
ezELMAkGA1UEBhMCVVMxFjAUBgNVBAgTDU1hc3NhY2h1c2V0dHMxLjAsBgNVBAoT
JU1hc3NhY2h1c2V0dHMgSW5zdGl0dXRlIG9mIFRlY2hub2xvZ3kxJDAiBgNVBAsT
G01JVCBDZXJ0aWZpY2F0aW9uIEF1dGhvcml0eTAeFw0xMDAxMjYxNzAwMDBaFw0x
MTAxMjcxNzAwMDBaMIHSMQswCQYDVQQGEwJVUzEWMBQGA1UECBMNTWFzc2FjaHVz
ZXR0czESMBAGA1UEBxMJQ2FtYnJpZGdlMS4wLAYDVQQKEyVNYXNzYWNodXNldHRz
IEluc3RpdHV0ZSBvZiBUZWNobm9sb2d5MSwwKgYDVQQLEyNzY3JpcHRzLm1pdC5l
ZHUgd2ViIGhvc3Rpbmcgc2VydmljZTEZMBcGA1UEAxMQZWFzdGdhdGUubWl0LmVk
dTEeMBwGCSqGSIb3DQEJARYPc2NyaXB0c0BtaXQuZWR1MIGfMA0GCSqGSIb3DQEB
AQUAA4GNADCBiQKBgQC1PiFNwYlrAYxHgP6zNyd2+FJB5qI9S3Z45fJmPA+xrfuX
jy6itlPTtg7iZvm5C7fOtNX1HB9vIn1I9W3wFs2OSHnRFEoULy/4xL0dh899i1x3
rVgksA6hbdYKx9i8L2dlyF3Y2DHCZ0tK9KGlVIKvyzQIKgR/jnxMt9vcaopdgQID
AQABo4GrMIGoMAkGA1UdEwQCMAAwEQYJYIZIAYb4QgEBBAQDAgXgMCcGA1UdJQQg
MB4GCCsGAQUFBwMBBggrBgEFBQcDBAYIKwYBBQUHAwIwCwYDVR0PBAQDAgXgMB0G
A1UdDgQWBBRUEXwJVUQclEWponZGKywkJmpE6DAzBgNVHR8ELDAqMCigJqAkhiJo
dHRwOi8vY2EubWl0LmVkdS9jYS9taXRzZXJ2ZXIuY3JsMA0GCSqGSIb3DQEBBQUA
A4GBAKnbG5Lg8GxjJjnwqD6sk5m9vSuKfbG9MwN8tSmVMvwDVB0T2Qljq/gYfqAo
s9qMBqF8U/YPnfjzLDRNGVL7BXHziIWoTpf6VmDuqzM6RVJgPMMu7amHNLcRoT/P
sR1PxTuGY14QRZLZTPP5Xg9cu759NGRiVEVx0ybY7MWQxV1i
-----END CERTIFICATE-----

