From mitcert@MIT.EDU Sat Jan 15 10:20:42 2011
Date: Sat, 15 Jan 2011 10:20:41 -0500 (EST)
From: mitcert@MIT.EDU
To: mitchb@mit.edu
Subject: Certificate signing request for eastgate.mit.edu  [help.mit.edu #1456826]

Certificate:
    Data:
        Version: 3 (0x2)
        Serial Number:
            21:05:bc:0b:0e:5f:eb:c9:f3:38:24:3e:fc:7a:1b:e2
        Signature Algorithm: sha1WithRSAEncryption
        Issuer: C=US, ST=Massachusetts, O=Massachusetts Institute of Technology, OU=MIT Certification Authority
        Validity
            Not Before: Jan 13 17:00:00 2011 GMT
            Not After : Jan 12 17:00:00 2012 GMT
        Subject: C=US, ST=Massachusetts, L=Cambridge, O=Massachusetts Institute of Technology, OU=scripts.mit.edu web hosting service, CN=eastgate.mit.edu/emailAddress=scripts@mit.edu
        Subject Public Key Info:
            Public Key Algorithm: rsaEncryption
            RSA Public Key: (4096 bit)
                Modulus (4096 bit):
                    00:bf:a3:f2:7b:98:cc:16:a7:57:e6:92:85:34:56:
                    f1:e3:62:83:9e:6a:4f:35:9d:f0:cf:89:87:73:e3:
                    93:f7:b7:01:57:38:6e:e9:fc:59:4d:24:eb:a7:17:
                    47:ca:2c:51:0e:45:c8:b7:68:c9:0e:32:26:e0:91:
                    d3:06:5c:8c:7c:0e:6c:99:0c:b2:46:05:0f:4d:f1:
                    b0:c7:5e:35:06:62:fe:2a:d6:0f:1b:2c:b5:02:24:
                    4c:c3:06:71:ec:94:ca:1d:aa:af:7e:b9:2d:c0:55:
                    4b:cc:bc:51:3d:76:68:5b:d3:ed:35:d0:03:ba:1b:
                    6c:f3:a0:d8:d3:dc:6b:44:b0:5e:01:51:d3:02:cc:
                    4a:da:52:12:de:35:31:69:16:5a:48:8b:0f:ce:ad:
                    4d:e4:d5:8b:11:36:7f:87:1c:fd:84:da:43:2e:87:
                    2f:41:70:ac:ad:df:54:c0:ed:f6:21:51:fa:c5:06:
                    f0:1b:eb:a1:b0:bf:4d:1c:42:34:8a:d5:6f:f7:25:
                    66:73:8f:60:c4:d7:8d:33:91:f4:46:3a:97:09:59:
                    01:ff:c3:64:94:40:48:30:68:f0:6e:03:26:74:c2:
                    a1:b3:d7:cb:94:fc:6e:53:8a:2a:9e:fd:b1:4f:c4:
                    74:56:25:63:1f:aa:bd:95:25:78:9c:45:46:1b:0c:
                    21:71:eb:84:94:d0:b2:f1:da:52:f6:d1:7f:63:1d:
                    08:23:52:5f:c2:f9:4d:ac:a4:44:e5:9a:54:70:fc:
                    c9:fc:d4:d4:b7:1d:75:95:00:e3:bf:3e:4c:f3:43:
                    c3:96:c7:09:2a:29:45:12:d2:31:d6:79:4c:8a:e7:
                    54:27:22:c6:80:ae:87:23:56:f1:8d:49:9b:c8:fa:
                    ed:33:5b:5f:56:76:c8:0f:7e:85:14:69:c4:48:31:
                    07:39:a5:34:81:f2:6b:15:50:22:fb:bb:2c:ad:4b:
                    84:ea:55:64:f7:de:56:9d:d0:b6:d0:7d:1e:1b:51:
                    50:37:44:94:e6:c4:15:eb:45:31:f1:b3:ec:0f:b3:
                    a9:0c:f8:1c:47:c7:51:00:05:ef:ee:b0:3d:9f:7e:
                    07:a7:38:e8:83:4c:3d:db:34:b6:24:0c:90:57:c0:
                    f9:d0:64:14:8a:93:47:9b:41:f5:a3:14:1d:9e:18:
                    5d:d5:d8:66:af:f5:f3:c8:2f:bc:a7:02:a7:ef:dc:
                    f0:0e:c7:47:8d:2e:d6:a8:62:42:93:5b:7c:f5:35:
                    f8:31:10:7b:38:d4:40:24:68:81:13:27:cb:fb:76:
                    0e:d1:99:14:d8:d5:eb:f7:69:64:8f:af:8f:82:bb:
                    24:29:f9:d4:29:1d:ce:e6:14:ba:4c:8b:09:ff:46:
                    ce:8b:6d
                Exponent: 65537 (0x10001)
        X509v3 extensions:
            X509v3 Basic Constraints: 
                CA:FALSE
            Netscape Cert Type: 
                SSL Client, SSL Server, S/MIME
            X509v3 Extended Key Usage: 
                TLS Web Server Authentication, E-mail Protection, TLS Web Client Authentication
            X509v3 Key Usage: 
                Digital Signature, Non Repudiation, Key Encipherment
            X509v3 Subject Key Identifier: 
                CB:11:B7:01:5F:86:55:4F:45:5E:AB:27:69:BE:E1:3C:89:7A:55:62
            X509v3 CRL Distribution Points: 
                URI:http://ca.mit.edu/ca/mitserver.crl

    Signature Algorithm: sha1WithRSAEncryption
        ae:70:9c:e3:ef:df:3b:3d:12:c2:34:9b:05:36:93:7a:4c:76:
        7d:1d:bc:22:05:34:df:8a:d6:2e:a1:05:0d:06:1d:d5:cb:1b:
        52:c6:ab:fe:3e:0f:6a:97:cb:36:6d:25:f2:06:da:4b:9b:52:
        f2:2a:4b:61:2d:8f:b9:3f:e2:74:89:20:a7:69:26:50:1f:38:
        18:33:38:f4:fc:a3:95:85:5c:24:5b:32:12:bd:da:24:68:94:
        c0:9d:f6:c7:a7:12:db:b9:d4:4a:2a:97:9d:1c:7b:87:5f:96:
        4a:97:1f:d0:bb:4b:ed:fa:42:05:93:62:ac:2f:63:bc:d2:61:
        5b:97
-----BEGIN CERTIFICATE-----
MIIFAzCCBGygAwIBAgIQIQW8Cw5f68nzOCQ+/Hob4jANBgkqhkiG9w0BAQUFADB7
MQswCQYDVQQGEwJVUzEWMBQGA1UECBMNTWFzc2FjaHVzZXR0czEuMCwGA1UEChMl
TWFzc2FjaHVzZXR0cyBJbnN0aXR1dGUgb2YgVGVjaG5vbG9neTEkMCIGA1UECxMb
TUlUIENlcnRpZmljYXRpb24gQXV0aG9yaXR5MB4XDTExMDExMzE3MDAwMFoXDTEy
MDExMjE3MDAwMFowgdIxCzAJBgNVBAYTAlVTMRYwFAYDVQQIEw1NYXNzYWNodXNl
dHRzMRIwEAYDVQQHEwlDYW1icmlkZ2UxLjAsBgNVBAoTJU1hc3NhY2h1c2V0dHMg
SW5zdGl0dXRlIG9mIFRlY2hub2xvZ3kxLDAqBgNVBAsTI3NjcmlwdHMubWl0LmVk
dSB3ZWIgaG9zdGluZyBzZXJ2aWNlMRkwFwYDVQQDExBlYXN0Z2F0ZS5taXQuZWR1
MR4wHAYJKoZIhvcNAQkBFg9zY3JpcHRzQG1pdC5lZHUwggIiMA0GCSqGSIb3DQEB
AQUAA4ICDwAwggIKAoICAQC/o/J7mMwWp1fmkoU0VvHjYoOeak81nfDPiYdz45P3
twFXOG7p/FlNJOunF0fKLFEORci3aMkOMibgkdMGXIx8DmyZDLJGBQ9N8bDHXjUG
Yv4q1g8bLLUCJEzDBnHslModqq9+uS3AVUvMvFE9dmhb0+010AO6G2zzoNjT3GtE
sF4BUdMCzEraUhLeNTFpFlpIiw/OrU3k1YsRNn+HHP2E2kMuhy9BcKyt31TA7fYh
UfrFBvAb66Gwv00cQjSK1W/3JWZzj2DE140zkfRGOpcJWQH/w2SUQEgwaPBuAyZ0
wqGz18uU/G5Tiiqe/bFPxHRWJWMfqr2VJXicRUYbDCFx64SU0LLx2lL20X9jHQgj
Ul/C+U2spETlmlRw/Mn81NS3HXWVAOO/PkzzQ8OWxwkqKUUS0jHWeUyK51QnIsaA
rocjVvGNSZvI+u0zW19WdsgPfoUUacRIMQc5pTSB8msVUCL7uyytS4TqVWT33lad
0LbQfR4bUVA3RJTmxBXrRTHxs+wPs6kM+BxHx1EABe/usD2ffgenOOiDTD3bNLYk
DJBXwPnQZBSKk0ebQfWjFB2eGF3V2Gav9fPIL7ynAqfv3PAOx0eNLtaoYkKTW3z1
NfgxEHs41EAkaIETJ8v7dg7RmRTY1ev3aWSPr4+CuyQp+dQpHc7mFLpMiwn/Rs6L
bQIDAQABo4GrMIGoMAkGA1UdEwQCMAAwEQYJYIZIAYb4QgEBBAQDAgXgMCcGA1Ud
JQQgMB4GCCsGAQUFBwMBBggrBgEFBQcDBAYIKwYBBQUHAwIwCwYDVR0PBAQDAgXg
MB0GA1UdDgQWBBTLEbcBX4ZVT0VeqydpvuE8iXpVYjAzBgNVHR8ELDAqMCigJqAk
hiJodHRwOi8vY2EubWl0LmVkdS9jYS9taXRzZXJ2ZXIuY3JsMA0GCSqGSIb3DQEB
BQUAA4GBAK5wnOPv3zs9EsI0mwU2k3pMdn0dvCIFNN+K1i6hBQ0GHdXLG1LGq/4+
D2qXyzZtJfIG2kubUvIqS2Etj7k/4nSJIKdpJlAfOBgzOPT8o5WFXCRbMhK92iRo
lMCd9senEtu51Eoql50ce4dflkqXH9C7S+36QgWTYqwvY7zSYVuX
-----END CERTIFICATE-----

