From mitcert@MIT.EDU Sat Nov 20 10:03:00 2010
Date: Sat, 20 Nov 2010 10:02:59 -0500 (EST)
From: mitcert@MIT.EDU
To: mitchb@mit.edu
Subject: Certificate signing request for ec.mit.edu  [help.mit.edu #1409006]

Certificate:
    Data:
        Version: 3 (0x2)
        Serial Number:
            35:3b:f7:7c:03:3f:fb:c8:0e:0b:07:c7:70:f6:73:85
        Signature Algorithm: sha1WithRSAEncryption
        Issuer: C=US, ST=Massachusetts, O=Massachusetts Institute of Technology, OU=MIT Certification Authority
        Validity
            Not Before: Nov 18 17:00:00 2010 GMT
            Not After : Nov 17 17:00:00 2011 GMT
        Subject: C=US, ST=Massachusetts, L=Cambridge, O=Massachusetts Institute of Technology, OU=scripts.mit.edu web hosting service, CN=ec.mit.edu/emailAddress=scripts@mit.edu
        Subject Public Key Info:
            Public Key Algorithm: rsaEncryption
            RSA Public Key: (1024 bit)
                Modulus (1024 bit):
                    00:b5:3e:21:4d:c1:89:6b:01:8c:47:80:fe:b3:37:
                    27:76:f8:52:41:e6:a2:3d:4b:76:78:e5:f2:66:3c:
                    0f:b1:ad:fb:97:8f:2e:a2:b6:53:d3:b6:0e:e2:66:
                    f9:b9:0b:b7:ce:b4:d5:f5:1c:1f:6f:22:7d:48:f5:
                    6d:f0:16:cd:8e:48:79:d1:14:4a:14:2f:2f:f8:c4:
                    bd:1d:87:cf:7d:8b:5c:77:ad:58:24:b0:0e:a1:6d:
                    d6:0a:c7:d8:bc:2f:67:65:c8:5d:d8:d8:31:c2:67:
                    4b:4a:f4:a1:a5:54:82:af:cb:34:08:2a:04:7f:8e:
                    7c:4c:b7:db:dc:6a:8a:5d:81
                Exponent: 65537 (0x10001)
        X509v3 extensions:
            X509v3 Basic Constraints: 
                CA:FALSE
            Netscape Cert Type: 
                SSL Client, SSL Server, S/MIME
            X509v3 Extended Key Usage: 
                TLS Web Server Authentication, E-mail Protection, TLS Web Client Authentication
            X509v3 Key Usage: 
                Digital Signature, Non Repudiation, Key Encipherment
            X509v3 Subject Key Identifier: 
                54:11:7C:09:55:44:1C:94:45:A9:A2:76:46:2B:2C:24:26:6A:44:E8
            X509v3 CRL Distribution Points: 
                URI:http://ca.mit.edu/ca/mitserver.crl

    Signature Algorithm: sha1WithRSAEncryption
        9e:04:bd:45:9b:5b:a3:b0:55:fa:c2:3c:1a:ce:1b:1c:c4:95:
        3d:52:e7:f3:fd:dc:f8:06:2a:06:fb:35:15:b9:c2:c2:34:5b:
        ce:b0:98:e6:7b:a6:b5:5c:a6:1d:56:a2:31:0e:88:7d:a6:4b:
        a1:f6:04:36:be:6b:c7:21:6e:32:d6:d7:c4:62:a5:35:5e:12:
        c0:4e:77:47:ac:5d:7e:30:c6:c4:3b:25:12:f4:04:f8:f0:0b:
        f7:1a:d0:f8:8e:d1:bc:96:2a:a3:54:92:c8:ea:05:a4:59:58:
        5a:ab:64:ec:88:9c:7b:e8:83:48:24:db:ef:d8:85:8d:8b:13:
        4e:00
-----BEGIN CERTIFICATE-----
MIIDeTCCAuKgAwIBAgIQNTv3fAM/+8gOCwfHcPZzhTANBgkqhkiG9w0BAQUFADB7
MQswCQYDVQQGEwJVUzEWMBQGA1UECBMNTWFzc2FjaHVzZXR0czEuMCwGA1UEChMl
TWFzc2FjaHVzZXR0cyBJbnN0aXR1dGUgb2YgVGVjaG5vbG9neTEkMCIGA1UECxMb
TUlUIENlcnRpZmljYXRpb24gQXV0aG9yaXR5MB4XDTEwMTExODE3MDAwMFoXDTEx
MTExNzE3MDAwMFowgcwxCzAJBgNVBAYTAlVTMRYwFAYDVQQIEw1NYXNzYWNodXNl
dHRzMRIwEAYDVQQHEwlDYW1icmlkZ2UxLjAsBgNVBAoTJU1hc3NhY2h1c2V0dHMg
SW5zdGl0dXRlIG9mIFRlY2hub2xvZ3kxLDAqBgNVBAsTI3NjcmlwdHMubWl0LmVk
dSB3ZWIgaG9zdGluZyBzZXJ2aWNlMRMwEQYDVQQDEwplYy5taXQuZWR1MR4wHAYJ
KoZIhvcNAQkBFg9zY3JpcHRzQG1pdC5lZHUwgZ8wDQYJKoZIhvcNAQEBBQADgY0A
MIGJAoGBALU+IU3BiWsBjEeA/rM3J3b4UkHmoj1Ldnjl8mY8D7Gt+5ePLqK2U9O2
DuJm+bkLt8601fUcH28ifUj1bfAWzY5IedEUShQvL/jEvR2Hz32LXHetWCSwDqFt
1grH2LwvZ2XIXdjYMcJnS0r0oaVUgq/LNAgqBH+OfEy329xqil2BAgMBAAGjgasw
gagwCQYDVR0TBAIwADARBglghkgBhvhCAQEEBAMCBeAwJwYDVR0lBCAwHgYIKwYB
BQUHAwEGCCsGAQUFBwMEBggrBgEFBQcDAjALBgNVHQ8EBAMCBeAwHQYDVR0OBBYE
FFQRfAlVRByURamidkYrLCQmakToMDMGA1UdHwQsMCowKKAmoCSGImh0dHA6Ly9j
YS5taXQuZWR1L2NhL21pdHNlcnZlci5jcmwwDQYJKoZIhvcNAQEFBQADgYEAngS9
RZtbo7BV+sI8Gs4bHMSVPVLn8/3c+AYqBvs1FbnCwjRbzrCY5numtVymHVaiMQ6I
faZLofYENr5rxyFuMtbXxGKlNV4SwE53R6xdfjDGxDslEvQE+PAL9xrQ+I7RvJYq
o1SSyOoFpFlYWqtk7Iice+iDSCTb79iFjYsTTgA=
-----END CERTIFICATE-----

