Certificate:
    Data:
        Version: 3 (0x2)
        Serial Number: 2903 (0xb57)
        Signature Algorithm: sha1WithRSAEncryption
        Issuer: C=US, ST=Massachusetts, O=Massachusetts Institute of Technology, OU=MIT Certification Authority
        Validity
            Not Before: Aug 11 16:00:00 2008 GMT
            Not After : Aug 11 16:00:00 2009 GMT
        Subject: C=US, ST=Massachusetts, L=Cambridge, O=Massachusetts Institute of Technology, OU=Student Information Processing Board, CN=familynet.mit.edu/Email=scripts@mit.edu
        Subject Public Key Info:
            Public Key Algorithm: rsaEncryption
            RSA Public Key: (1024 bit)
                Modulus (1024 bit):
                    00:b5:3e:21:4d:c1:89:6b:01:8c:47:80:fe:b3:37:
                    27:76:f8:52:41:e6:a2:3d:4b:76:78:e5:f2:66:3c:
                    0f:b1:ad:fb:97:8f:2e:a2:b6:53:d3:b6:0e:e2:66:
                    f9:b9:0b:b7:ce:b4:d5:f5:1c:1f:6f:22:7d:48:f5:
                    6d:f0:16:cd:8e:48:79:d1:14:4a:14:2f:2f:f8:c4:
                    bd:1d:87:cf:7d:8b:5c:77:ad:58:24:b0:0e:a1:6d:
                    d6:0a:c7:d8:bc:2f:67:65:c8:5d:d8:d8:31:c2:67:
                    4b:4a:f4:a1:a5:54:82:af:cb:34:08:2a:04:7f:8e:
                    7c:4c:b7:db:dc:6a:8a:5d:81
                Exponent: 65537 (0x10001)
        X509v3 extensions:
            X509v3 Basic Constraints: 
                CA:FALSE
            Netscape Cert Type: 
                SSL Client, SSL Server, S/MIME
            X509v3 Extended Key Usage: 
                TLS Web Server Authentication, E-mail Protection, TLS Web Client Authentication
            X509v3 Key Usage: 
                Digital Signature, Non Repudiation, Key Encipherment
            X509v3 Subject Key Identifier: 
                54:11:7C:09:55:44:1C:94:45:A9:A2:76:46:2B:2C:24:26:6A:44:E8
    Signature Algorithm: sha1WithRSAEncryption
        35:8d:38:94:82:a8:a3:a4:ba:a4:0f:d9:b7:d5:f5:2a:89:5a:
        0f:95:88:db:ff:e9:d6:4e:04:9b:24:41:57:2d:ff:a6:91:ba:
        57:e6:74:63:ba:ca:2d:f6:30:e9:27:1c:ea:43:5b:cc:d3:21:
        e3:dc:b1:2e:82:39:85:fa:0a:2a:db:47:2f:05:4c:a1:77:93:
        0f:a3:c5:b7:f1:4b:76:ad:1a:2d:6b:f9:f9:46:48:e8:ab:2b:
        09:86:67:10:64:c9:9b:9f:b2:9a:63:10:4b:bc:c7:db:78:d1:
        1c:a3:6a:f8:0f:5c:d5:f2:b8:63:c1:16:6e:ac:ae:f1:44:3b:
        10:92
-----BEGIN CERTIFICATE-----
MIIDPDCCAqWgAwIBAgICC1cwDQYJKoZIhvcNAQEFBQAwezELMAkGA1UEBhMCVVMx
FjAUBgNVBAgTDU1hc3NhY2h1c2V0dHMxLjAsBgNVBAoTJU1hc3NhY2h1c2V0dHMg
SW5zdGl0dXRlIG9mIFRlY2hub2xvZ3kxJDAiBgNVBAsTG01JVCBDZXJ0aWZpY2F0
aW9uIEF1dGhvcml0eTAeFw0wODA4MTExNjAwMDBaFw0wOTA4MTExNjAwMDBaMIHU
MQswCQYDVQQGEwJVUzEWMBQGA1UECBMNTWFzc2FjaHVzZXR0czESMBAGA1UEBxMJ
Q2FtYnJpZGdlMS4wLAYDVQQKEyVNYXNzYWNodXNldHRzIEluc3RpdHV0ZSBvZiBU
ZWNobm9sb2d5MS0wKwYDVQQLEyRTdHVkZW50IEluZm9ybWF0aW9uIFByb2Nlc3Np
bmcgQm9hcmQxGjAYBgNVBAMTEWZhbWlseW5ldC5taXQuZWR1MR4wHAYJKoZIhvcN
AQkBFg9zY3JpcHRzQG1pdC5lZHUwgZ8wDQYJKoZIhvcNAQEBBQADgY0AMIGJAoGB
ALU+IU3BiWsBjEeA/rM3J3b4UkHmoj1Ldnjl8mY8D7Gt+5ePLqK2U9O2DuJm+bkL
t8601fUcH28ifUj1bfAWzY5IedEUShQvL/jEvR2Hz32LXHetWCSwDqFt1grH2Lwv
Z2XIXdjYMcJnS0r0oaVUgq/LNAgqBH+OfEy329xqil2BAgMBAAGjdTBzMAkGA1Ud
EwQCMAAwEQYJYIZIAYb4QgEBBAQDAgXgMCcGA1UdJQQgMB4GCCsGAQUFBwMBBggr
BgEFBQcDBAYIKwYBBQUHAwIwCwYDVR0PBAQDAgXgMB0GA1UdDgQWBBRUEXwJVUQc
lEWponZGKywkJmpE6DANBgkqhkiG9w0BAQUFAAOBgQA1jTiUgqijpLqkD9m31fUq
iVoPlYjb/+nWTgSbJEFXLf+mkbpX5nRjusot9jDpJxzqQ1vM0yHj3LEugjmF+goq
20cvBUyhd5MPo8W38Ut2rRota/n5RkjoqysJhmcQZMmbn7KaYxBLvMfbeNEco2r4
D1zV8rhjwRZurK7xRDsQkg==
-----END CERTIFICATE-----
