Certificate:
    Data:
        Version: 3 (0x2)
        Serial Number:
            a4:10:09:e5:83:d7:c1:06:a9:b6:f5:bd:5d:dc:92:d8
        Signature Algorithm: sha1WithRSAEncryption
        Issuer: C=US, ST=Massachusetts, O=Massachusetts Institute of Technology, OU=MIT Certification Authority
        Validity
            Not Before: Apr 28 16:00:00 2010 GMT
            Not After : Apr 28 16:00:00 2011 GMT
        Subject: C=US, ST=Massachusetts, L=Cambridge, O=Massachusetts Institute of Technology, OU=scripts.mit.edu web hosting service,
CN=finboard.mit.edu/emailAddress=scripts@mit.edu
        Subject Public Key Info:
            Public Key Algorithm: rsaEncryption
            RSA Public Key: (1024 bit)
                Modulus (1024 bit):
                    00:b5:3e:21:4d:c1:89:6b:01:8c:47:80:fe:b3:37:
                    27:76:f8:52:41:e6:a2:3d:4b:76:78:e5:f2:66:3c:
                    0f:b1:ad:fb:97:8f:2e:a2:b6:53:d3:b6:0e:e2:66:
                    f9:b9:0b:b7:ce:b4:d5:f5:1c:1f:6f:22:7d:48:f5:
                    6d:f0:16:cd:8e:48:79:d1:14:4a:14:2f:2f:f8:c4:
                    bd:1d:87:cf:7d:8b:5c:77:ad:58:24:b0:0e:a1:6d:
                    d6:0a:c7:d8:bc:2f:67:65:c8:5d:d8:d8:31:c2:67:
                    4b:4a:f4:a1:a5:54:82:af:cb:34:08:2a:04:7f:8e:
                    7c:4c:b7:db:dc:6a:8a:5d:81
                Exponent: 65537 (0x10001)
        X509v3 extensions:
            X509v3 Basic Constraints: 
                CA:FALSE
            Netscape Cert Type: 
                SSL Client, SSL Server, S/MIME
            X509v3 Extended Key Usage:
                TLS Web Server Authentication, E-mail Protection, TLS Web Client Authentication
            X509v3 Key Usage:
                Digital Signature, Non Repudiation, Key Encipherment
            X509v3 Subject Key Identifier: 
                54:11:7C:09:55:44:1C:94:45:A9:A2:76:46:2B:2C:24:26:6A:44:E8
            X509v3 CRL Distribution Points: 
                URI:http://ca.mit.edu/ca/mitserver.crl

    Signature Algorithm: sha1WithRSAEncryption
        4a:7c:d3:b2:84:dd:b8:f9:46:1e:04:28:c3:cc:7b:78:72:ca:
        97:c3:6e:a9:6b:0e:a0:b1:99:47:65:1a:6c:13:5c:13:b2:20:
        10:6e:cd:af:9e:f1:47:ff:4c:f5:b0:ab:0f:e5:2d:dd:bd:40:
        05:43:cc:12:3d:dc:7b:c6:c8:d9:d8:18:dd:59:1a:e3:78:b2:
        93:b4:c2:75:18:7a:23:2d:ee:15:0e:bf:9e:ff:18:c3:d2:9d:
        4f:15:2a:f9:66:1c:04:40:db:cc:57:b8:fa:59:e6:b7:49:b8:
        29:fc:02:a6:0f:a2:c9:dd:ee:00:e0:58:cc:b4:79:60:f5:3e:
        91:fd
-----BEGIN CERTIFICATE-----
MIIDgDCCAumgAwIBAgIRAKQQCeWD18EGqbb1vV3cktgwDQYJKoZIhvcNAQEFBQAw
ezELMAkGA1UEBhMCVVMxFjAUBgNVBAgTDU1hc3NhY2h1c2V0dHMxLjAsBgNVBAoT
JU1hc3NhY2h1c2V0dHMgSW5zdGl0dXRlIG9mIFRlY2hub2xvZ3kxJDAiBgNVBAsT
G01JVCBDZXJ0aWZpY2F0aW9uIEF1dGhvcml0eTAeFw0xMDA0MjgxNjAwMDBaFw0x
MTA0MjgxNjAwMDBaMIHSMQswCQYDVQQGEwJVUzEWMBQGA1UECBMNTWFzc2FjaHVz
ZXR0czESMBAGA1UEBxMJQ2FtYnJpZGdlMS4wLAYDVQQKEyVNYXNzYWNodXNldHRz
IEluc3RpdHV0ZSBvZiBUZWNobm9sb2d5MSwwKgYDVQQLEyNzY3JpcHRzLm1pdC5l
ZHUgd2ViIGhvc3Rpbmcgc2VydmljZTEZMBcGA1UEAxMQZmluYm9hcmQubWl0LmVk
dTEeMBwGCSqGSIb3DQEJARYPc2NyaXB0c0BtaXQuZWR1MIGfMA0GCSqGSIb3DQEB
AQUAA4GNADCBiQKBgQC1PiFNwYlrAYxHgP6zNyd2+FJB5qI9S3Z45fJmPA+xrfuX
jy6itlPTtg7iZvm5C7fOtNX1HB9vIn1I9W3wFs2OSHnRFEoULy/4xL0dh899i1x3
rVgksA6hbdYKx9i8L2dlyF3Y2DHCZ0tK9KGlVIKvyzQIKgR/jnxMt9vcaopdgQID
AQABo4GrMIGoMAkGA1UdEwQCMAAwEQYJYIZIAYb4QgEBBAQDAgXgMCcGA1UdJQQg
MB4GCCsGAQUFBwMBBggrBgEFBQcDBAYIKwYBBQUHAwIwCwYDVR0PBAQDAgXgMB0G
A1UdDgQWBBRUEXwJVUQclEWponZGKywkJmpE6DAzBgNVHR8ELDAqMCigJqAkhiJo
dHRwOi8vY2EubWl0LmVkdS9jYS9taXRzZXJ2ZXIuY3JsMA0GCSqGSIb3DQEBBQUA
A4GBAEp807KE3bj5Rh4EKMPMe3hyypfDbqlrDqCxmUdlGmwTXBOyIBBuza+e8Uf/
TPWwqw/lLd29QAVDzBI93HvGyNnYGN1ZGuN4spO0wnUYeiMt7hUOv57/GMPSnU8V
KvlmHARA28xXuPpZ5rdJuCn8AqYPosnd7gDgWMy0eWD1PpH9
-----END CERTIFICATE-----
