From mitcert@MIT.EDU Thu Oct 28 09:33:50 2010
Date: Thu, 28 Oct 2010 09:33:49 -0400 (EDT)
From: mitcert@MIT.EDU
To: geofft@mit.edu
Subject: CSR for fridget.mit.edu  [help.mit.edu #1385003]

Certificate:
    Data:
        Version: 3 (0x2)
        Serial Number:
            d4:0c:18:79:68:d3:fe:c0:06:e0:af:3b:1e:ae:3e:4f
        Signature Algorithm: sha1WithRSAEncryption
        Issuer: C=US, ST=Massachusetts, O=Massachusetts Institute of Technology, OU=MIT Certification Authority
        Validity
            Not Before: Oct 26 16:00:00 2010 GMT
            Not After : Oct 27 16:00:00 2011 GMT
        Subject: C=US, ST=Massachusetts, L=Cambridge, O=Massachusetts Institute of Technology, OU=Scripts.mit.edu Web Hosting Service, CN=fridget.mit.edu/emailAddress=scripts@mit.edu
        Subject Public Key Info:
            Public Key Algorithm: rsaEncryption
            RSA Public Key: (1024 bit)
                Modulus (1024 bit):
                    00:b5:3e:21:4d:c1:89:6b:01:8c:47:80:fe:b3:37:
                    27:76:f8:52:41:e6:a2:3d:4b:76:78:e5:f2:66:3c:
                    0f:b1:ad:fb:97:8f:2e:a2:b6:53:d3:b6:0e:e2:66:
                    f9:b9:0b:b7:ce:b4:d5:f5:1c:1f:6f:22:7d:48:f5:
                    6d:f0:16:cd:8e:48:79:d1:14:4a:14:2f:2f:f8:c4:
                    bd:1d:87:cf:7d:8b:5c:77:ad:58:24:b0:0e:a1:6d:
                    d6:0a:c7:d8:bc:2f:67:65:c8:5d:d8:d8:31:c2:67:
                    4b:4a:f4:a1:a5:54:82:af:cb:34:08:2a:04:7f:8e:
                    7c:4c:b7:db:dc:6a:8a:5d:81
                Exponent: 65537 (0x10001)
        X509v3 extensions:
            X509v3 Basic Constraints: 
                CA:FALSE
            Netscape Cert Type: 
                SSL Client, SSL Server, S/MIME
            X509v3 Extended Key Usage: 
                TLS Web Server Authentication, E-mail Protection, TLS Web Client Authentication
            X509v3 Key Usage: 
                Digital Signature, Non Repudiation, Key Encipherment
            X509v3 Subject Key Identifier: 
                54:11:7C:09:55:44:1C:94:45:A9:A2:76:46:2B:2C:24:26:6A:44:E8
            X509v3 CRL Distribution Points: 
                URI:http://ca.mit.edu/ca/mitserver.crl

    Signature Algorithm: sha1WithRSAEncryption
        33:4b:3e:71:f3:08:28:14:9c:b9:8a:c1:6a:3a:2f:11:92:f5:
        1e:21:83:61:e6:48:de:2b:cb:78:6a:6a:aa:3d:05:6b:ce:cf:
        5f:f8:56:21:4d:b8:d9:fe:14:47:f1:93:ea:6c:c6:1b:1b:ba:
        b2:35:e5:fb:8f:d0:3e:9d:a5:b2:87:28:39:f1:9d:f9:6f:2f:
        14:47:c1:d2:aa:a5:5d:c9:33:eb:fc:ae:c3:b8:50:eb:48:ec:
        ac:0d:0b:ef:fd:7f:e1:97:0d:3c:65:2e:a1:15:95:58:3b:27:
        9d:5c:f6:a3:ba:0a:93:31:2f:0f:d9:8d:d2:54:67:98:3a:df:
        bb:ea
-----BEGIN CERTIFICATE-----
MIIDfzCCAuigAwIBAgIRANQMGHlo0/7ABuCvOx6uPk8wDQYJKoZIhvcNAQEFBQAw
ezELMAkGA1UEBhMCVVMxFjAUBgNVBAgTDU1hc3NhY2h1c2V0dHMxLjAsBgNVBAoT
JU1hc3NhY2h1c2V0dHMgSW5zdGl0dXRlIG9mIFRlY2hub2xvZ3kxJDAiBgNVBAsT
G01JVCBDZXJ0aWZpY2F0aW9uIEF1dGhvcml0eTAeFw0xMDEwMjYxNjAwMDBaFw0x
MTEwMjcxNjAwMDBaMIHRMQswCQYDVQQGEwJVUzEWMBQGA1UECBMNTWFzc2FjaHVz
ZXR0czESMBAGA1UEBxMJQ2FtYnJpZGdlMS4wLAYDVQQKEyVNYXNzYWNodXNldHRz
IEluc3RpdHV0ZSBvZiBUZWNobm9sb2d5MSwwKgYDVQQLEyNTY3JpcHRzLm1pdC5l
ZHUgV2ViIEhvc3RpbmcgU2VydmljZTEYMBYGA1UEAxMPZnJpZGdldC5taXQuZWR1
MR4wHAYJKoZIhvcNAQkBFg9zY3JpcHRzQG1pdC5lZHUwgZ8wDQYJKoZIhvcNAQEB
BQADgY0AMIGJAoGBALU+IU3BiWsBjEeA/rM3J3b4UkHmoj1Ldnjl8mY8D7Gt+5eP
LqK2U9O2DuJm+bkLt8601fUcH28ifUj1bfAWzY5IedEUShQvL/jEvR2Hz32LXHet
WCSwDqFt1grH2LwvZ2XIXdjYMcJnS0r0oaVUgq/LNAgqBH+OfEy329xqil2BAgMB
AAGjgaswgagwCQYDVR0TBAIwADARBglghkgBhvhCAQEEBAMCBeAwJwYDVR0lBCAw
HgYIKwYBBQUHAwEGCCsGAQUFBwMEBggrBgEFBQcDAjALBgNVHQ8EBAMCBeAwHQYD
VR0OBBYEFFQRfAlVRByURamidkYrLCQmakToMDMGA1UdHwQsMCowKKAmoCSGImh0
dHA6Ly9jYS5taXQuZWR1L2NhL21pdHNlcnZlci5jcmwwDQYJKoZIhvcNAQEFBQAD
gYEAM0s+cfMIKBScuYrBajovEZL1HiGDYeZI3ivLeGpqqj0Fa87PX/hWIU242f4U
R/GT6mzGGxu6sjXl+4/QPp2lsocoOfGd+W8vFEfB0qqlXckz6/yuw7hQ60jsrA0L
7/1/4ZcNPGUuoRWVWDsnnVz2o7oKkzEvD9mN0lRnmDrfu+o=
-----END CERTIFICATE-----

