From mitcert@MIT.EDU Fri Dec 24 10:54:43 2010
Date: Fri, 24 Dec 2010 10:54:42 -0500 (EST)
From: mitcert@MIT.EDU
To: mitchb@mit.edu
Subject: Certificate signing request for impact.mit.edu  [help.mit.edu #1439483]

Certificate:
    Data:
        Version: 3 (0x2)
        Serial Number:
            29:d0:86:34:f6:2a:b1:40:60:12:1b:fe:a3:2c:86:5d
        Signature Algorithm: sha1WithRSAEncryption
        Issuer: C=US, ST=Massachusetts, O=Massachusetts Institute of Technology, OU=MIT Certification Authority
        Validity
            Not Before: Dec 22 17:00:00 2010 GMT
            Not After : Dec 22 17:00:00 2011 GMT
        Subject: C=US, ST=Massachusetts, L=Cambridge, O=Massachusetts Institute of Technology, OU=scripts.mit.edu web hosting service, CN=impact.mit.edu/emailAddress=scripts@mit.edu
        Subject Public Key Info:
            Public Key Algorithm: rsaEncryption
            RSA Public Key: (1024 bit)
                Modulus (1024 bit):
                    00:b5:3e:21:4d:c1:89:6b:01:8c:47:80:fe:b3:37:
                    27:76:f8:52:41:e6:a2:3d:4b:76:78:e5:f2:66:3c:
                    0f:b1:ad:fb:97:8f:2e:a2:b6:53:d3:b6:0e:e2:66:
                    f9:b9:0b:b7:ce:b4:d5:f5:1c:1f:6f:22:7d:48:f5:
                    6d:f0:16:cd:8e:48:79:d1:14:4a:14:2f:2f:f8:c4:
                    bd:1d:87:cf:7d:8b:5c:77:ad:58:24:b0:0e:a1:6d:
                    d6:0a:c7:d8:bc:2f:67:65:c8:5d:d8:d8:31:c2:67:
                    4b:4a:f4:a1:a5:54:82:af:cb:34:08:2a:04:7f:8e:
                    7c:4c:b7:db:dc:6a:8a:5d:81
                Exponent: 65537 (0x10001)
        X509v3 extensions:
            X509v3 Basic Constraints: 
                CA:FALSE
            Netscape Cert Type: 
                SSL Client, SSL Server, S/MIME
            X509v3 Extended Key Usage: 
                TLS Web Server Authentication, E-mail Protection, TLS Web Client Authentication
            X509v3 Key Usage: 
                Digital Signature, Non Repudiation, Key Encipherment
            X509v3 Subject Key Identifier: 
                54:11:7C:09:55:44:1C:94:45:A9:A2:76:46:2B:2C:24:26:6A:44:E8
            X509v3 CRL Distribution Points: 
                URI:http://ca.mit.edu/ca/mitserver.crl

    Signature Algorithm: sha1WithRSAEncryption
        32:b8:3d:70:49:81:5c:2d:ee:fa:0b:c4:bd:72:36:d0:f4:d2:
        f5:5f:7b:b5:eb:8c:3e:0c:45:49:5f:f3:3d:57:da:f8:93:d8:
        fe:a0:f1:11:26:35:8c:d3:e4:c4:c4:bf:bf:fe:b0:38:67:9d:
        4f:96:2c:5d:80:b3:39:18:b9:13:72:a9:24:ee:83:33:de:71:
        6e:28:16:a3:88:79:ff:e9:c7:e0:4f:ee:ab:b3:d0:e8:f4:32:
        2a:99:55:6b:aa:f0:c2:3b:71:0d:c2:d8:47:d3:14:65:6f:75:
        1b:cf:39:38:3e:d0:24:ff:17:08:42:93:3d:ff:90:ea:6e:7b:
        7f:b4
-----BEGIN CERTIFICATE-----
MIIDfTCCAuagAwIBAgIQKdCGNPYqsUBgEhv+oyyGXTANBgkqhkiG9w0BAQUFADB7
MQswCQYDVQQGEwJVUzEWMBQGA1UECBMNTWFzc2FjaHVzZXR0czEuMCwGA1UEChMl
TWFzc2FjaHVzZXR0cyBJbnN0aXR1dGUgb2YgVGVjaG5vbG9neTEkMCIGA1UECxMb
TUlUIENlcnRpZmljYXRpb24gQXV0aG9yaXR5MB4XDTEwMTIyMjE3MDAwMFoXDTEx
MTIyMjE3MDAwMFowgdAxCzAJBgNVBAYTAlVTMRYwFAYDVQQIEw1NYXNzYWNodXNl
dHRzMRIwEAYDVQQHEwlDYW1icmlkZ2UxLjAsBgNVBAoTJU1hc3NhY2h1c2V0dHMg
SW5zdGl0dXRlIG9mIFRlY2hub2xvZ3kxLDAqBgNVBAsTI3NjcmlwdHMubWl0LmVk
dSB3ZWIgaG9zdGluZyBzZXJ2aWNlMRcwFQYDVQQDEw5pbXBhY3QubWl0LmVkdTEe
MBwGCSqGSIb3DQEJARYPc2NyaXB0c0BtaXQuZWR1MIGfMA0GCSqGSIb3DQEBAQUA
A4GNADCBiQKBgQC1PiFNwYlrAYxHgP6zNyd2+FJB5qI9S3Z45fJmPA+xrfuXjy6i
tlPTtg7iZvm5C7fOtNX1HB9vIn1I9W3wFs2OSHnRFEoULy/4xL0dh899i1x3rVgk
sA6hbdYKx9i8L2dlyF3Y2DHCZ0tK9KGlVIKvyzQIKgR/jnxMt9vcaopdgQIDAQAB
o4GrMIGoMAkGA1UdEwQCMAAwEQYJYIZIAYb4QgEBBAQDAgXgMCcGA1UdJQQgMB4G
CCsGAQUFBwMBBggrBgEFBQcDBAYIKwYBBQUHAwIwCwYDVR0PBAQDAgXgMB0GA1Ud
DgQWBBRUEXwJVUQclEWponZGKywkJmpE6DAzBgNVHR8ELDAqMCigJqAkhiJodHRw
Oi8vY2EubWl0LmVkdS9jYS9taXRzZXJ2ZXIuY3JsMA0GCSqGSIb3DQEBBQUAA4GB
ADK4PXBJgVwt7voLxL1yNtD00vVfe7XrjD4MRUlf8z1X2viT2P6g8REmNYzT5MTE
v7/+sDhnnU+WLF2AszkYuRNyqSTugzPecW4oFqOIef/px+BP7quz0Oj0MiqZVWuq
8MI7cQ3C2EfTFGVvdRvPOTg+0CT/FwhCkz3/kOpue3+0
-----END CERTIFICATE-----

