From mitcert@MIT.EDU Tue Dec 29 18:56:41 2009
Date: Tue, 29 Dec 2009 18:55:09 -0500 (EST)
From: mitcert@MIT.EDU
To: geofft@mit.edu
Subject: CSR for scripts vhost impact.mit.edu  [help.mit.edu #1111993]

Certificate:
    Data:
        Version: 3 (0x2)
        Serial Number:
            ae:89:b5:3d:74:9a:a0:16:25:26:ea:51:d7:e8:d9:8d
        Signature Algorithm: sha1WithRSAEncryption
        Issuer: C=US, ST=Massachusetts, O=Massachusetts Institute of Technology, OU=MIT Certification Authority
        Validity
            Not Before: Dec 28 17:00:00 2009 GMT
            Not After : Dec 29 17:00:00 2010 GMT
        Subject: C=US, ST=Massachusetts, L=Cambridge, O=Massachusetts Institute of Technology, OU=scripts.mit.edu web hosting service, CN=impact.mit.edu/emailAddress=scripts@mit.edu
        Subject Public Key Info:
            Public Key Algorithm: rsaEncryption
            RSA Public Key: (1024 bit)
                Modulus (1024 bit):
                    00:b5:3e:21:4d:c1:89:6b:01:8c:47:80:fe:b3:37:
                    27:76:f8:52:41:e6:a2:3d:4b:76:78:e5:f2:66:3c:
                    0f:b1:ad:fb:97:8f:2e:a2:b6:53:d3:b6:0e:e2:66:
                    f9:b9:0b:b7:ce:b4:d5:f5:1c:1f:6f:22:7d:48:f5:
                    6d:f0:16:cd:8e:48:79:d1:14:4a:14:2f:2f:f8:c4:
                    bd:1d:87:cf:7d:8b:5c:77:ad:58:24:b0:0e:a1:6d:
                    d6:0a:c7:d8:bc:2f:67:65:c8:5d:d8:d8:31:c2:67:
                    4b:4a:f4:a1:a5:54:82:af:cb:34:08:2a:04:7f:8e:
                    7c:4c:b7:db:dc:6a:8a:5d:81
                Exponent: 65537 (0x10001)
        X509v3 extensions:
            X509v3 Basic Constraints: 
                CA:FALSE
            Netscape Cert Type: 
                SSL Client, SSL Server, S/MIME
            X509v3 Extended Key Usage: 
                TLS Web Server Authentication, E-mail Protection, TLS Web Client Authentication
            X509v3 Key Usage: 
                Digital Signature, Non Repudiation, Key Encipherment
            X509v3 Subject Key Identifier: 
                54:11:7C:09:55:44:1C:94:45:A9:A2:76:46:2B:2C:24:26:6A:44:E8
            X509v3 CRL Distribution Points: 
                URI:http://ca.mit.edu/ca/mitserver.crl

    Signature Algorithm: sha1WithRSAEncryption
        64:47:b2:e4:81:44:a4:ae:64:8a:cb:7e:5c:11:b9:37:72:5b:
        12:fb:45:4c:81:7e:70:a8:41:ca:6a:0e:1a:a5:2f:4b:d9:15:
        30:d6:36:d6:1a:6f:a7:5d:1b:c8:b4:4d:1c:00:a5:3d:0d:e2:
        2b:be:35:fe:ad:7e:cf:77:ba:43:e1:0f:20:ea:bf:52:72:b7:
        0e:b8:fe:cb:7e:0e:61:53:25:fb:2a:9b:13:74:00:b0:42:39:
        e2:4e:cd:47:6f:a8:d2:15:45:57:ba:88:ce:01:75:f8:3b:dc:
        da:ec:f8:57:ad:c4:be:95:3e:14:9c:00:dc:ab:b1:01:a5:8e:
        11:f6
-----BEGIN CERTIFICATE-----
MIIDfjCCAuegAwIBAgIRAK6JtT10mqAWJSbqUdfo2Y0wDQYJKoZIhvcNAQEFBQAw
ezELMAkGA1UEBhMCVVMxFjAUBgNVBAgTDU1hc3NhY2h1c2V0dHMxLjAsBgNVBAoT
JU1hc3NhY2h1c2V0dHMgSW5zdGl0dXRlIG9mIFRlY2hub2xvZ3kxJDAiBgNVBAsT
G01JVCBDZXJ0aWZpY2F0aW9uIEF1dGhvcml0eTAeFw0wOTEyMjgxNzAwMDBaFw0x
MDEyMjkxNzAwMDBaMIHQMQswCQYDVQQGEwJVUzEWMBQGA1UECBMNTWFzc2FjaHVz
ZXR0czESMBAGA1UEBxMJQ2FtYnJpZGdlMS4wLAYDVQQKEyVNYXNzYWNodXNldHRz
IEluc3RpdHV0ZSBvZiBUZWNobm9sb2d5MSwwKgYDVQQLEyNzY3JpcHRzLm1pdC5l
ZHUgd2ViIGhvc3Rpbmcgc2VydmljZTEXMBUGA1UEAxMOaW1wYWN0Lm1pdC5lZHUx
HjAcBgkqhkiG9w0BCQEWD3NjcmlwdHNAbWl0LmVkdTCBnzANBgkqhkiG9w0BAQEF
AAOBjQAwgYkCgYEAtT4hTcGJawGMR4D+szcndvhSQeaiPUt2eOXyZjwPsa37l48u
orZT07YO4mb5uQu3zrTV9RwfbyJ9SPVt8BbNjkh50RRKFC8v+MS9HYfPfYtcd61Y
JLAOoW3WCsfYvC9nZchd2NgxwmdLSvShpVSCr8s0CCoEf458TLfb3GqKXYECAwEA
AaOBqzCBqDAJBgNVHRMEAjAAMBEGCWCGSAGG+EIBAQQEAwIF4DAnBgNVHSUEIDAe
BggrBgEFBQcDAQYIKwYBBQUHAwQGCCsGAQUFBwMCMAsGA1UdDwQEAwIF4DAdBgNV
HQ4EFgQUVBF8CVVEHJRFqaJ2RissJCZqROgwMwYDVR0fBCwwKjAooCagJIYiaHR0
cDovL2NhLm1pdC5lZHUvY2EvbWl0c2VydmVyLmNybDANBgkqhkiG9w0BAQUFAAOB
gQBkR7LkgUSkrmSKy35cEbk3clsS+0VMgX5wqEHKag4apS9L2RUw1jbWGm+nXRvI
tE0cAKU9DeIrvjX+rX7Pd7pD4Q8g6r9ScrcOuP7Lfg5hUyX7KpsTdACwQjniTs1H
b6jSFUVXuojOAXX4O9za7PhXrcS+lT4UnADcq7EBpY4R9g==
-----END CERTIFICATE-----

