From mitcert@MIT.EDU Fri Feb  5 23:06:38 2010
Date: Fri, 5 Feb 2010 23:06:32 -0500 (EST)
From: mitcert@MIT.EDU
To: scripts-root@mit.edu
Subject: CSR for scripts site isawyou.mit.edu  [help.mit.edu #1148125]

Certificate:
    Data:
        Version: 3 (0x2)
        Serial Number:
            fb:f7:c8:a0:94:0c:27:d0:90:9d:64:58:09:41:cd:a0
        Signature Algorithm: sha1WithRSAEncryption
        Issuer: C=US, ST=Massachusetts, O=Massachusetts Institute of Technology, OU=MIT Certification Authority
        Validity
            Not Before: Feb  4 17:00:00 2010 GMT
            Not After : Feb  3 17:00:00 2011 GMT
        Subject: C=US, ST=Massachusetts, L=Cambridge, O=Massachusetts Institute of Technology, OU=scripts.mit.edu web hosting service, CN=isawyou.mit.edu/emailAddress=scripts@mit.edu
        Subject Public Key Info:
            Public Key Algorithm: rsaEncryption
            RSA Public Key: (1024 bit)
                Modulus (1024 bit):
                    00:b5:3e:21:4d:c1:89:6b:01:8c:47:80:fe:b3:37:
                    27:76:f8:52:41:e6:a2:3d:4b:76:78:e5:f2:66:3c:
                    0f:b1:ad:fb:97:8f:2e:a2:b6:53:d3:b6:0e:e2:66:
                    f9:b9:0b:b7:ce:b4:d5:f5:1c:1f:6f:22:7d:48:f5:
                    6d:f0:16:cd:8e:48:79:d1:14:4a:14:2f:2f:f8:c4:
                    bd:1d:87:cf:7d:8b:5c:77:ad:58:24:b0:0e:a1:6d:
                    d6:0a:c7:d8:bc:2f:67:65:c8:5d:d8:d8:31:c2:67:
                    4b:4a:f4:a1:a5:54:82:af:cb:34:08:2a:04:7f:8e:
                    7c:4c:b7:db:dc:6a:8a:5d:81
                Exponent: 65537 (0x10001)
        X509v3 extensions:
            X509v3 Basic Constraints: 
                CA:FALSE
            Netscape Cert Type: 
                SSL Client, SSL Server, S/MIME
            X509v3 Extended Key Usage: 
                TLS Web Server Authentication, E-mail Protection, TLS Web Client Authentication
            X509v3 Key Usage: 
                Digital Signature, Non Repudiation, Key Encipherment
            X509v3 Subject Key Identifier: 
                54:11:7C:09:55:44:1C:94:45:A9:A2:76:46:2B:2C:24:26:6A:44:E8
            X509v3 CRL Distribution Points: 
                URI:http://ca.mit.edu/ca/mitserver.crl

    Signature Algorithm: sha1WithRSAEncryption
        4b:dd:56:04:bf:2c:3c:e8:b3:e7:6e:f4:d5:ff:f0:a5:38:e4:
        ad:70:b9:8d:55:75:2c:5a:3f:2f:c5:29:ce:2a:e8:d2:67:ef:
        53:0c:af:5a:4f:bb:41:a1:81:b7:43:ed:df:70:ab:99:e8:82:
        13:26:bc:3b:37:09:04:c0:3a:4e:47:c8:21:4f:0f:dc:1d:f1:
        15:69:da:a8:d8:41:0f:52:37:95:79:2e:55:5e:8f:73:46:09:
        94:d5:d1:ec:64:82:36:7b:2c:27:1e:64:d6:a9:6e:eb:09:1e:
        be:3e:d4:c1:e0:da:f4:19:5a:cd:47:b0:de:be:03:61:cb:47:
        4a:fb
-----BEGIN CERTIFICATE-----
MIIDfzCCAuigAwIBAgIRAPv3yKCUDCfQkJ1kWAlBzaAwDQYJKoZIhvcNAQEFBQAw
ezELMAkGA1UEBhMCVVMxFjAUBgNVBAgTDU1hc3NhY2h1c2V0dHMxLjAsBgNVBAoT
JU1hc3NhY2h1c2V0dHMgSW5zdGl0dXRlIG9mIFRlY2hub2xvZ3kxJDAiBgNVBAsT
G01JVCBDZXJ0aWZpY2F0aW9uIEF1dGhvcml0eTAeFw0xMDAyMDQxNzAwMDBaFw0x
MTAyMDMxNzAwMDBaMIHRMQswCQYDVQQGEwJVUzEWMBQGA1UECBMNTWFzc2FjaHVz
ZXR0czESMBAGA1UEBxMJQ2FtYnJpZGdlMS4wLAYDVQQKEyVNYXNzYWNodXNldHRz
IEluc3RpdHV0ZSBvZiBUZWNobm9sb2d5MSwwKgYDVQQLEyNzY3JpcHRzLm1pdC5l
ZHUgd2ViIGhvc3Rpbmcgc2VydmljZTEYMBYGA1UEAxMPaXNhd3lvdS5taXQuZWR1
MR4wHAYJKoZIhvcNAQkBFg9zY3JpcHRzQG1pdC5lZHUwgZ8wDQYJKoZIhvcNAQEB
BQADgY0AMIGJAoGBALU+IU3BiWsBjEeA/rM3J3b4UkHmoj1Ldnjl8mY8D7Gt+5eP
LqK2U9O2DuJm+bkLt8601fUcH28ifUj1bfAWzY5IedEUShQvL/jEvR2Hz32LXHet
WCSwDqFt1grH2LwvZ2XIXdjYMcJnS0r0oaVUgq/LNAgqBH+OfEy329xqil2BAgMB
AAGjgaswgagwCQYDVR0TBAIwADARBglghkgBhvhCAQEEBAMCBeAwJwYDVR0lBCAw
HgYIKwYBBQUHAwEGCCsGAQUFBwMEBggrBgEFBQcDAjALBgNVHQ8EBAMCBeAwHQYD
VR0OBBYEFFQRfAlVRByURamidkYrLCQmakToMDMGA1UdHwQsMCowKKAmoCSGImh0
dHA6Ly9jYS5taXQuZWR1L2NhL21pdHNlcnZlci5jcmwwDQYJKoZIhvcNAQEFBQAD
gYEAS91WBL8sPOiz52701f/wpTjkrXC5jVV1LFo/L8Upziro0mfvUwyvWk+7QaGB
t0Pt33CrmeiCEya8OzcJBMA6TkfIIU8P3B3xFWnaqNhBD1I3lXkuVV6Pc0YJlNXR
7GSCNnssJx5k1qlu6wkevj7UweDa9BlazUew3r4DYctHSvs=
-----END CERTIFICATE-----

