From mitcert@MIT.EDU Thu Nov 18 09:27:49 2010
Date: Thu, 18 Nov 2010 09:27:47 -0500 (EST)
From: mitcert@MIT.EDU
To: geofft@mit.edu
Subject: CSR for scripts site "listmon.mit.edu"  [help.mit.edu #1406503]

Certificate:
    Data:
        Version: 3 (0x2)
        Serial Number:
            33:62:1b:6c:45:3d:e6:f0:5a:4e:6a:dc:28:68:31:a2
        Signature Algorithm: sha1WithRSAEncryption
        Issuer: C=US, ST=Massachusetts, O=Massachusetts Institute of Technology, OU=MIT Certification Authority
        Validity
            Not Before: Nov 16 17:00:00 2010 GMT
            Not After : Nov 17 17:00:00 2011 GMT
        Subject: C=US, ST=Massachusetts, L=Cambridge, O=Massachusetts Institute of Technology, OU=scripts.mit.edu web hosting service, CN=listmon.mit.edu/emailAddress=scripts@mit.edu
        Subject Public Key Info:
            Public Key Algorithm: rsaEncryption
            RSA Public Key: (1024 bit)
                Modulus (1024 bit):
                    00:b5:3e:21:4d:c1:89:6b:01:8c:47:80:fe:b3:37:
                    27:76:f8:52:41:e6:a2:3d:4b:76:78:e5:f2:66:3c:
                    0f:b1:ad:fb:97:8f:2e:a2:b6:53:d3:b6:0e:e2:66:
                    f9:b9:0b:b7:ce:b4:d5:f5:1c:1f:6f:22:7d:48:f5:
                    6d:f0:16:cd:8e:48:79:d1:14:4a:14:2f:2f:f8:c4:
                    bd:1d:87:cf:7d:8b:5c:77:ad:58:24:b0:0e:a1:6d:
                    d6:0a:c7:d8:bc:2f:67:65:c8:5d:d8:d8:31:c2:67:
                    4b:4a:f4:a1:a5:54:82:af:cb:34:08:2a:04:7f:8e:
                    7c:4c:b7:db:dc:6a:8a:5d:81
                Exponent: 65537 (0x10001)
        X509v3 extensions:
            X509v3 Basic Constraints: 
                CA:FALSE
            Netscape Cert Type: 
                SSL Client, SSL Server, S/MIME
            X509v3 Extended Key Usage: 
                TLS Web Server Authentication, E-mail Protection, TLS Web Client Authentication
            X509v3 Key Usage: 
                Digital Signature, Non Repudiation, Key Encipherment
            X509v3 Subject Key Identifier: 
                54:11:7C:09:55:44:1C:94:45:A9:A2:76:46:2B:2C:24:26:6A:44:E8
            X509v3 CRL Distribution Points: 
                URI:http://ca.mit.edu/ca/mitserver.crl

    Signature Algorithm: sha1WithRSAEncryption
        c9:a5:5c:bd:e0:33:e4:9c:aa:8f:c5:f2:ee:fe:08:f0:71:ec:
        da:4a:7d:cd:ab:2f:00:4d:a8:7a:d1:7d:b0:84:b7:34:b3:2e:
        42:60:b6:4c:a8:e7:e5:c4:2b:8f:fd:a0:db:68:f6:c2:30:7a:
        d3:ec:34:79:e7:3c:89:95:0f:66:71:e1:0a:18:a5:66:28:bb:
        fe:1d:df:e7:db:98:55:aa:8d:4b:f9:cc:9c:ea:fe:7e:2c:21:
        4e:67:1f:c2:c1:ac:5c:e6:3c:a2:29:f8:2d:6b:46:be:1e:15:
        df:15:95:f0:96:8b:8a:17:ae:e9:a5:1d:f7:89:0b:95:5d:ea:
        5f:4a
-----BEGIN CERTIFICATE-----
MIIDfjCCAuegAwIBAgIQM2IbbEU95vBaTmrcKGgxojANBgkqhkiG9w0BAQUFADB7
MQswCQYDVQQGEwJVUzEWMBQGA1UECBMNTWFzc2FjaHVzZXR0czEuMCwGA1UEChMl
TWFzc2FjaHVzZXR0cyBJbnN0aXR1dGUgb2YgVGVjaG5vbG9neTEkMCIGA1UECxMb
TUlUIENlcnRpZmljYXRpb24gQXV0aG9yaXR5MB4XDTEwMTExNjE3MDAwMFoXDTEx
MTExNzE3MDAwMFowgdExCzAJBgNVBAYTAlVTMRYwFAYDVQQIEw1NYXNzYWNodXNl
dHRzMRIwEAYDVQQHEwlDYW1icmlkZ2UxLjAsBgNVBAoTJU1hc3NhY2h1c2V0dHMg
SW5zdGl0dXRlIG9mIFRlY2hub2xvZ3kxLDAqBgNVBAsTI3NjcmlwdHMubWl0LmVk
dSB3ZWIgaG9zdGluZyBzZXJ2aWNlMRgwFgYDVQQDEw9saXN0bW9uLm1pdC5lZHUx
HjAcBgkqhkiG9w0BCQEWD3NjcmlwdHNAbWl0LmVkdTCBnzANBgkqhkiG9w0BAQEF
AAOBjQAwgYkCgYEAtT4hTcGJawGMR4D+szcndvhSQeaiPUt2eOXyZjwPsa37l48u
orZT07YO4mb5uQu3zrTV9RwfbyJ9SPVt8BbNjkh50RRKFC8v+MS9HYfPfYtcd61Y
JLAOoW3WCsfYvC9nZchd2NgxwmdLSvShpVSCr8s0CCoEf458TLfb3GqKXYECAwEA
AaOBqzCBqDAJBgNVHRMEAjAAMBEGCWCGSAGG+EIBAQQEAwIF4DAnBgNVHSUEIDAe
BggrBgEFBQcDAQYIKwYBBQUHAwQGCCsGAQUFBwMCMAsGA1UdDwQEAwIF4DAdBgNV
HQ4EFgQUVBF8CVVEHJRFqaJ2RissJCZqROgwMwYDVR0fBCwwKjAooCagJIYiaHR0
cDovL2NhLm1pdC5lZHUvY2EvbWl0c2VydmVyLmNybDANBgkqhkiG9w0BAQUFAAOB
gQDJpVy94DPknKqPxfLu/gjwcezaSn3Nqy8ATah60X2whLc0sy5CYLZMqOflxCuP
/aDbaPbCMHrT7DR55zyJlQ9mceEKGKVmKLv+Hd/n25hVqo1L+cyc6v5+LCFOZx/C
waxc5jyiKfgta0a+HhXfFZXwlouKF67ppR33iQuVXepfSg==
-----END CERTIFICATE-----

