Date: Sun, 09 Aug 2009 15:40:04 EDT
To: mitchb@mit.edu
From: mitcert@MIT.EDU
Subject: Certificate signing request for metu.mit.edu [help.mit.edu #979862]

Certificate:
    Data:
        Version: 3 (0x2)
        Serial Number:
            3e:78:ea:52:97:86:e5:94:dd:8f:bb:3d:51:6b:30:10
        Signature Algorithm: sha1WithRSAEncryption
        Issuer: C=US, ST=Massachusetts, O=Massachusetts Institute of Technology, OU=MIT Certification Authority
        Validity
            Not Before: Aug  8 16:00:00 2009 GMT
            Not After : Aug  9 16:00:00 2010 GMT
        Subject: C=US, ST=Massachusetts, L=Cambridge, O=Massachusetts Institute of Technology, OU=Student Information Processing Board, CN=metu.mit.edu/emailAddress=scripts@mit.edu
        Subject Public Key Info:
            Public Key Algorithm: rsaEncryption
            RSA Public Key: (1024 bit)
                Modulus (1024 bit):
                    00:b5:3e:21:4d:c1:89:6b:01:8c:47:80:fe:b3:37:
                    27:76:f8:52:41:e6:a2:3d:4b:76:78:e5:f2:66:3c:
                    0f:b1:ad:fb:97:8f:2e:a2:b6:53:d3:b6:0e:e2:66:
                    f9:b9:0b:b7:ce:b4:d5:f5:1c:1f:6f:22:7d:48:f5:
                    6d:f0:16:cd:8e:48:79:d1:14:4a:14:2f:2f:f8:c4:
                    bd:1d:87:cf:7d:8b:5c:77:ad:58:24:b0:0e:a1:6d:
                    d6:0a:c7:d8:bc:2f:67:65:c8:5d:d8:d8:31:c2:67:
                    4b:4a:f4:a1:a5:54:82:af:cb:34:08:2a:04:7f:8e:
                    7c:4c:b7:db:dc:6a:8a:5d:81
                Exponent: 65537 (0x10001)
        X509v3 extensions:
            X509v3 Basic Constraints: 
                CA:FALSE
            Netscape Cert Type: 
                SSL Client, SSL Server, S/MIME
            X509v3 Extended Key Usage: 
                TLS Web Server Authentication, E-mail Protection, TLS Web Client Authentication
            X509v3 Key Usage: 
                Digital Signature, Non Repudiation, Key Encipherment
            X509v3 Subject Key Identifier: 
                54:11:7C:09:55:44:1C:94:45:A9:A2:76:46:2B:2C:24:26:6A:44:E8
            X509v3 CRL Distribution Points: 
                URI:http://ca.mit.edu/ca/mitserver.crl

    Signature Algorithm: sha1WithRSAEncryption
        35:fc:23:b0:89:52:0f:9a:9e:15:9e:ba:09:89:63:26:a1:63:
        4e:b6:f8:5d:56:c3:59:c5:ec:8b:f2:05:a3:66:1a:23:7e:9c:
        6c:6c:11:08:04:e0:1b:4c:f7:62:6d:08:92:0e:f0:91:88:96:
        86:13:d7:21:f0:97:f3:15:91:ed:e5:bb:c0:6a:69:3c:d4:42:
        7d:64:51:88:97:02:8f:88:5c:70:ea:ea:42:a9:73:93:76:f1:
        b5:d2:3e:ce:f8:ca:0a:68:b9:1a:8b:c2:fc:36:08:c1:17:46:
        8c:dd:a8:d3:61:fd:75:1e:08:e8:aa:11:5f:be:69:29:fd:7f:
        57:66
-----BEGIN CERTIFICATE-----
MIIDfDCCAuWgAwIBAgIQPnjqUpeG5ZTdj7s9UWswEDANBgkqhkiG9w0BAQUFADB7
MQswCQYDVQQGEwJVUzEWMBQGA1UECBMNTWFzc2FjaHVzZXR0czEuMCwGA1UEChMl
TWFzc2FjaHVzZXR0cyBJbnN0aXR1dGUgb2YgVGVjaG5vbG9neTEkMCIGA1UECxMb
TUlUIENlcnRpZmljYXRpb24gQXV0aG9yaXR5MB4XDTA5MDgwODE2MDAwMFoXDTEw
MDgwOTE2MDAwMFowgc8xCzAJBgNVBAYTAlVTMRYwFAYDVQQIEw1NYXNzYWNodXNl
dHRzMRIwEAYDVQQHEwlDYW1icmlkZ2UxLjAsBgNVBAoTJU1hc3NhY2h1c2V0dHMg
SW5zdGl0dXRlIG9mIFRlY2hub2xvZ3kxLTArBgNVBAsTJFN0dWRlbnQgSW5mb3Jt
YXRpb24gUHJvY2Vzc2luZyBCb2FyZDEVMBMGA1UEAxMMbWV0dS5taXQuZWR1MR4w
HAYJKoZIhvcNAQkBFg9zY3JpcHRzQG1pdC5lZHUwgZ8wDQYJKoZIhvcNAQEBBQAD
gY0AMIGJAoGBALU+IU3BiWsBjEeA/rM3J3b4UkHmoj1Ldnjl8mY8D7Gt+5ePLqK2
U9O2DuJm+bkLt8601fUcH28ifUj1bfAWzY5IedEUShQvL/jEvR2Hz32LXHetWCSw
DqFt1grH2LwvZ2XIXdjYMcJnS0r0oaVUgq/LNAgqBH+OfEy329xqil2BAgMBAAGj
gaswgagwCQYDVR0TBAIwADARBglghkgBhvhCAQEEBAMCBeAwJwYDVR0lBCAwHgYI
KwYBBQUHAwEGCCsGAQUFBwMEBggrBgEFBQcDAjALBgNVHQ8EBAMCBeAwHQYDVR0O
BBYEFFQRfAlVRByURamidkYrLCQmakToMDMGA1UdHwQsMCowKKAmoCSGImh0dHA6
Ly9jYS5taXQuZWR1L2NhL21pdHNlcnZlci5jcmwwDQYJKoZIhvcNAQEFBQADgYEA
NfwjsIlSD5qeFZ66CYljJqFjTrb4XVbDWcXsi/IFo2YaI36cbGwRCATgG0z3Ym0I
kg7wkYiWhhPXIfCX8xWR7eW7wGppPNRCfWRRiJcCj4hccOrqQqlzk3bxtdI+zvjK
Cmi5GovC/DYIwRdGjN2o02H9dR4I6KoRX75pKf1/V2Y=
-----END CERTIFICATE-----

