From mitcert@MIT.EDU Mon Aug  1 16:25:13 2011
Date: Mon, 1 Aug 2011 16:25:11 -0400
From: "mitcert@MIT.EDU" <mitcert@MIT.EDU>
To: Alexander Chernyakhovsky <achernya@mit.edu>
Subject: [help.mit.edu #1682246] certificate renewal for scripts-vhost next.mit.edu 

Certificate:
    Data:
        Version: 3 (0x2)
        Serial Number:
            41:6d:f6:bd:a1:d6:f8:5e:f9:75:5b:58:0f:53:d3:ba
        Signature Algorithm: sha1WithRSAEncryption
        Issuer: C=US, ST=Massachusetts, O=Massachusetts Institute of Technology, OU=MIT Certification Authority
        Validity
            Not Before: Jul 31 16:00:00 2011 GMT
            Not After : Jul 31 16:00:00 2012 GMT
        Subject: C=US, ST=Massachusetts, L=Cambridge, O=Massachusetts Institute of Technology, OU=scripts.mit.edu web hosting service, CN=next.mit.edu/emailAddress=scripts@mit.edu
        Subject Public Key Info:
            Public Key Algorithm: rsaEncryption
            RSA Public Key: (4096 bit)
                Modulus (4096 bit):
                    00:bf:a3:f2:7b:98:cc:16:a7:57:e6:92:85:34:56:
                    f1:e3:62:83:9e:6a:4f:35:9d:f0:cf:89:87:73:e3:
                    93:f7:b7:01:57:38:6e:e9:fc:59:4d:24:eb:a7:17:
                    47:ca:2c:51:0e:45:c8:b7:68:c9:0e:32:26:e0:91:
                    d3:06:5c:8c:7c:0e:6c:99:0c:b2:46:05:0f:4d:f1:
                    b0:c7:5e:35:06:62:fe:2a:d6:0f:1b:2c:b5:02:24:
                    4c:c3:06:71:ec:94:ca:1d:aa:af:7e:b9:2d:c0:55:
                    4b:cc:bc:51:3d:76:68:5b:d3:ed:35:d0:03:ba:1b:
                    6c:f3:a0:d8:d3:dc:6b:44:b0:5e:01:51:d3:02:cc:
                    4a:da:52:12:de:35:31:69:16:5a:48:8b:0f:ce:ad:
                    4d:e4:d5:8b:11:36:7f:87:1c:fd:84:da:43:2e:87:
                    2f:41:70:ac:ad:df:54:c0:ed:f6:21:51:fa:c5:06:
                    f0:1b:eb:a1:b0:bf:4d:1c:42:34:8a:d5:6f:f7:25:
                    66:73:8f:60:c4:d7:8d:33:91:f4:46:3a:97:09:59:
                    01:ff:c3:64:94:40:48:30:68:f0:6e:03:26:74:c2:
                    a1:b3:d7:cb:94:fc:6e:53:8a:2a:9e:fd:b1:4f:c4:
                    74:56:25:63:1f:aa:bd:95:25:78:9c:45:46:1b:0c:
                    21:71:eb:84:94:d0:b2:f1:da:52:f6:d1:7f:63:1d:
                    08:23:52:5f:c2:f9:4d:ac:a4:44:e5:9a:54:70:fc:
                    c9:fc:d4:d4:b7:1d:75:95:00:e3:bf:3e:4c:f3:43:
                    c3:96:c7:09:2a:29:45:12:d2:31:d6:79:4c:8a:e7:
                    54:27:22:c6:80:ae:87:23:56:f1:8d:49:9b:c8:fa:
                    ed:33:5b:5f:56:76:c8:0f:7e:85:14:69:c4:48:31:
                    07:39:a5:34:81:f2:6b:15:50:22:fb:bb:2c:ad:4b:
                    84:ea:55:64:f7:de:56:9d:d0:b6:d0:7d:1e:1b:51:
                    50:37:44:94:e6:c4:15:eb:45:31:f1:b3:ec:0f:b3:
                    a9:0c:f8:1c:47:c7:51:00:05:ef:ee:b0:3d:9f:7e:
                    07:a7:38:e8:83:4c:3d:db:34:b6:24:0c:90:57:c0:
                    f9:d0:64:14:8a:93:47:9b:41:f5:a3:14:1d:9e:18:
                    5d:d5:d8:66:af:f5:f3:c8:2f:bc:a7:02:a7:ef:dc:
                    f0:0e:c7:47:8d:2e:d6:a8:62:42:93:5b:7c:f5:35:
                    f8:31:10:7b:38:d4:40:24:68:81:13:27:cb:fb:76:
                    0e:d1:99:14:d8:d5:eb:f7:69:64:8f:af:8f:82:bb:
                    24:29:f9:d4:29:1d:ce:e6:14:ba:4c:8b:09:ff:46:
                    ce:8b:6d
                Exponent: 65537 (0x10001)
        X509v3 extensions:
            X509v3 Basic Constraints: 
                CA:FALSE
            Netscape Cert Type: 
                SSL Client, SSL Server, S/MIME
            X509v3 Extended Key Usage: 
                TLS Web Server Authentication, E-mail Protection, TLS Web Client Authentication
            X509v3 Key Usage: 
                Digital Signature, Non Repudiation, Key Encipherment
            X509v3 Subject Key Identifier: 
                CB:11:B7:01:5F:86:55:4F:45:5E:AB:27:69:BE:E1:3C:89:7A:55:62
            X509v3 CRL Distribution Points: 
                URI:http://ca.mit.edu/ca/mitserver.crl

    Signature Algorithm: sha1WithRSAEncryption
        64:12:5b:44:aa:a9:9d:7e:87:2a:08:64:36:35:d8:4b:c8:be:
        7b:ca:82:aa:49:17:ec:67:54:ca:25:b3:5c:be:10:8c:2d:99:
        fb:64:58:d2:99:96:30:d6:21:1b:15:fb:ee:e4:2e:f5:5f:aa:
        f4:cc:77:7a:4c:71:c2:b1:ca:64:2a:c1:fb:5a:b3:92:17:87:
        89:36:b2:46:71:8e:ce:69:76:7f:5b:d9:f0:dc:55:68:a2:c1:
        e7:70:2c:07:5a:7a:c9:4d:d2:72:3b:d8:0f:f3:7a:a0:9b:d0:
        a8:83:3b:7b:f3:6d:07:b5:f8:54:ed:13:6d:be:5a:ef:19:e3:
        40:97
-----BEGIN CERTIFICATE-----
MIIE/zCCBGigAwIBAgIQQW32vaHW+F75dVtYD1PTujANBgkqhkiG9w0BAQUFADB7
MQswCQYDVQQGEwJVUzEWMBQGA1UECBMNTWFzc2FjaHVzZXR0czEuMCwGA1UEChMl
TWFzc2FjaHVzZXR0cyBJbnN0aXR1dGUgb2YgVGVjaG5vbG9neTEkMCIGA1UECxMb
TUlUIENlcnRpZmljYXRpb24gQXV0aG9yaXR5MB4XDTExMDczMTE2MDAwMFoXDTEy
MDczMTE2MDAwMFowgc4xCzAJBgNVBAYTAlVTMRYwFAYDVQQIEw1NYXNzYWNodXNl
dHRzMRIwEAYDVQQHEwlDYW1icmlkZ2UxLjAsBgNVBAoTJU1hc3NhY2h1c2V0dHMg
SW5zdGl0dXRlIG9mIFRlY2hub2xvZ3kxLDAqBgNVBAsTI3NjcmlwdHMubWl0LmVk
dSB3ZWIgaG9zdGluZyBzZXJ2aWNlMRUwEwYDVQQDEwxuZXh0Lm1pdC5lZHUxHjAc
BgkqhkiG9w0BCQEWD3NjcmlwdHNAbWl0LmVkdTCCAiIwDQYJKoZIhvcNAQEBBQAD
ggIPADCCAgoCggIBAL+j8nuYzBanV+aShTRW8eNig55qTzWd8M+Jh3Pjk/e3AVc4
bun8WU0k66cXR8osUQ5FyLdoyQ4yJuCR0wZcjHwObJkMskYFD03xsMdeNQZi/irW
DxsstQIkTMMGceyUyh2qr365LcBVS8y8UT12aFvT7TXQA7obbPOg2NPca0SwXgFR
0wLMStpSEt41MWkWWkiLD86tTeTVixE2f4cc/YTaQy6HL0FwrK3fVMDt9iFR+sUG
8BvrobC/TRxCNIrVb/clZnOPYMTXjTOR9EY6lwlZAf/DZJRASDBo8G4DJnTCobPX
y5T8blOKKp79sU/EdFYlYx+qvZUleJxFRhsMIXHrhJTQsvHaUvbRf2MdCCNSX8L5
TaykROWaVHD8yfzU1LcddZUA478+TPNDw5bHCSopRRLSMdZ5TIrnVCcixoCuhyNW
8Y1Jm8j67TNbX1Z2yA9+hRRpxEgxBzmlNIHyaxVQIvu7LK1LhOpVZPfeVp3QttB9
HhtRUDdElObEFetFMfGz7A+zqQz4HEfHUQAF7+6wPZ9+B6c46INMPds0tiQMkFfA
+dBkFIqTR5tB9aMUHZ4YXdXYZq/188gvvKcCp+/c8A7HR40u1qhiQpNbfPU1+DEQ
ezjUQCRogRMny/t2DtGZFNjV6/dpZI+vj4K7JCn51CkdzuYUukyLCf9GzottAgMB
AAGjgaswgagwCQYDVR0TBAIwADARBglghkgBhvhCAQEEBAMCBeAwJwYDVR0lBCAw
HgYIKwYBBQUHAwEGCCsGAQUFBwMEBggrBgEFBQcDAjALBgNVHQ8EBAMCBeAwHQYD
VR0OBBYEFMsRtwFfhlVPRV6rJ2m+4TyJelViMDMGA1UdHwQsMCowKKAmoCSGImh0
dHA6Ly9jYS5taXQuZWR1L2NhL21pdHNlcnZlci5jcmwwDQYJKoZIhvcNAQEFBQAD
gYEAZBJbRKqpnX6HKghkNjXYS8i+e8qCqkkX7GdUyiWzXL4QjC2Z+2RY0pmWMNYh
GxX77uQu9V+q9Mx3ekxxwrHKZCrB+1qzkheHiTayRnGOzml2f1vZ8NxVaKLB53As
B1p6yU3ScjvYD/N6oJvQqIM7e/NtB7X4VO0Tbb5a7xnjQJc=
-----END CERTIFICATE-----

