Certificate:
    Data:
        Version: 3 (0x2)
        Serial Number: 3256 (0xcb8)
        Signature Algorithm: sha1WithRSAEncryption
        Issuer: C=US, ST=Massachusetts, O=Massachusetts Institute of Technology, OU=MIT Certification Authority
        Validity
            Not Before: Jan 26 17:00:00 2009 GMT
            Not After : Jan 26 17:00:00 2010 GMT
        Subject: C=US, ST=Massachusetts, L=Cambridge, O=Massachusetts Institute of Technology, OU=Student Information Processing Board, CN=picker.mit.edu/Email=scripts@mit.edu
        Subject Public Key Info:
            Public Key Algorithm: rsaEncryption
            RSA Public Key: (1024 bit)
                Modulus (1024 bit):
                    00:b5:3e:21:4d:c1:89:6b:01:8c:47:80:fe:b3:37:
                    27:76:f8:52:41:e6:a2:3d:4b:76:78:e5:f2:66:3c:
                    0f:b1:ad:fb:97:8f:2e:a2:b6:53:d3:b6:0e:e2:66:
                    f9:b9:0b:b7:ce:b4:d5:f5:1c:1f:6f:22:7d:48:f5:
                    6d:f0:16:cd:8e:48:79:d1:14:4a:14:2f:2f:f8:c4:
                    bd:1d:87:cf:7d:8b:5c:77:ad:58:24:b0:0e:a1:6d:
                    d6:0a:c7:d8:bc:2f:67:65:c8:5d:d8:d8:31:c2:67:
                    4b:4a:f4:a1:a5:54:82:af:cb:34:08:2a:04:7f:8e:
                    7c:4c:b7:db:dc:6a:8a:5d:81
                Exponent: 65537 (0x10001)
        X509v3 extensions:
            X509v3 Basic Constraints: 
                CA:FALSE
            Netscape Cert Type: 
                SSL Client, SSL Server, S/MIME
            X509v3 Extended Key Usage: 
                TLS Web Server Authentication, E-mail Protection, TLS Web Client Authentication
            X509v3 Key Usage: 
                Digital Signature, Non Repudiation, Key Encipherment
            X509v3 Subject Key Identifier: 
                54:11:7C:09:55:44:1C:94:45:A9:A2:76:46:2B:2C:24:26:6A:44:E8
    Signature Algorithm: sha1WithRSAEncryption
        14:6f:8e:33:4a:48:53:ff:f4:6a:f4:38:13:c9:74:d3:23:b8:
        44:8b:28:0f:10:c0:20:28:fa:e7:cb:f3:74:66:f2:b0:01:26:
        50:eb:ad:fc:54:52:3f:d1:e4:10:c8:d7:71:ae:5c:f2:44:e2:
        b3:7c:b0:8a:6a:cc:33:cd:cd:f4:ad:17:a0:c9:1d:c6:3d:32:
        31:93:04:b4:da:6d:ca:a0:bc:99:5b:f0:83:91:ec:40:c7:a5:
        23:87:05:47:76:e6:13:20:a4:5a:d4:63:5e:3f:d5:f5:3f:98:
        99:c3:1c:73:e7:36:0c:3f:5d:1e:12:d0:17:a7:f0:55:99:fa:
        d9:c8
-----BEGIN CERTIFICATE-----
MIIDOTCCAqKgAwIBAgICDLgwDQYJKoZIhvcNAQEFBQAwezELMAkGA1UEBhMCVVMx
FjAUBgNVBAgTDU1hc3NhY2h1c2V0dHMxLjAsBgNVBAoTJU1hc3NhY2h1c2V0dHMg
SW5zdGl0dXRlIG9mIFRlY2hub2xvZ3kxJDAiBgNVBAsTG01JVCBDZXJ0aWZpY2F0
aW9uIEF1dGhvcml0eTAeFw0wOTAxMjYxNzAwMDBaFw0xMDAxMjYxNzAwMDBaMIHR
MQswCQYDVQQGEwJVUzEWMBQGA1UECBMNTWFzc2FjaHVzZXR0czESMBAGA1UEBxMJ
Q2FtYnJpZGdlMS4wLAYDVQQKEyVNYXNzYWNodXNldHRzIEluc3RpdHV0ZSBvZiBU
ZWNobm9sb2d5MS0wKwYDVQQLEyRTdHVkZW50IEluZm9ybWF0aW9uIFByb2Nlc3Np
bmcgQm9hcmQxFzAVBgNVBAMTDnBpY2tlci5taXQuZWR1MR4wHAYJKoZIhvcNAQkB
Fg9zY3JpcHRzQG1pdC5lZHUwgZ8wDQYJKoZIhvcNAQEBBQADgY0AMIGJAoGBALU+
IU3BiWsBjEeA/rM3J3b4UkHmoj1Ldnjl8mY8D7Gt+5ePLqK2U9O2DuJm+bkLt860
1fUcH28ifUj1bfAWzY5IedEUShQvL/jEvR2Hz32LXHetWCSwDqFt1grH2LwvZ2XI
XdjYMcJnS0r0oaVUgq/LNAgqBH+OfEy329xqil2BAgMBAAGjdTBzMAkGA1UdEwQC
MAAwEQYJYIZIAYb4QgEBBAQDAgXgMCcGA1UdJQQgMB4GCCsGAQUFBwMBBggrBgEF
BQcDBAYIKwYBBQUHAwIwCwYDVR0PBAQDAgXgMB0GA1UdDgQWBBRUEXwJVUQclEWp
onZGKywkJmpE6DANBgkqhkiG9w0BAQUFAAOBgQAUb44zSkhT//Rq9DgTyXTTI7hE
iygPEMAgKPrny/N0ZvKwASZQ6638VFI/0eQQyNdxrlzyROKzfLCKaswzzc30rReg
yR3GPTIxkwS02m3KoLyZW/CDkexAx6UjhwVHduYTIKRa1GNeP9X1P5iZwxxz5zYM
P10eEtAXp/BVmfrZyA==
-----END CERTIFICATE-----
