From mitcert@MIT.EDU Thu Jan 21 09:09:22 2010
Date: Thu, 21 Jan 2010 09:08:28 -0500 (EST)
From: mitcert@MIT.EDU
To: mitchb@mit.edu
Subject: Certificate signing request for picker.mit.edu  [help.mit.edu #1131029]

Certificate:
    Data:
        Version: 3 (0x2)
        Serial Number:
            82:25:c3:92:de:7e:d8:f8:78:c6:bd:58:07:aa:6c:5e
        Signature Algorithm: sha1WithRSAEncryption
        Issuer: C=US, ST=Massachusetts, O=Massachusetts Institute of Technology, OU=MIT Certification Authority
        Validity
            Not Before: Jan 19 17:00:00 2010 GMT
            Not After : Jan 20 17:00:00 2011 GMT
        Subject: C=US, ST=Massachusetts, L=Cambridge, O=Massachusetts Institute of Technology, OU=scripts.mit.edu web hosting service, CN=picker.mit.edu/emailAddress=scripts@mit.edu
        Subject Public Key Info:
            Public Key Algorithm: rsaEncryption
            RSA Public Key: (1024 bit)
                Modulus (1024 bit):
                    00:b5:3e:21:4d:c1:89:6b:01:8c:47:80:fe:b3:37:
                    27:76:f8:52:41:e6:a2:3d:4b:76:78:e5:f2:66:3c:
                    0f:b1:ad:fb:97:8f:2e:a2:b6:53:d3:b6:0e:e2:66:
                    f9:b9:0b:b7:ce:b4:d5:f5:1c:1f:6f:22:7d:48:f5:
                    6d:f0:16:cd:8e:48:79:d1:14:4a:14:2f:2f:f8:c4:
                    bd:1d:87:cf:7d:8b:5c:77:ad:58:24:b0:0e:a1:6d:
                    d6:0a:c7:d8:bc:2f:67:65:c8:5d:d8:d8:31:c2:67:
                    4b:4a:f4:a1:a5:54:82:af:cb:34:08:2a:04:7f:8e:
                    7c:4c:b7:db:dc:6a:8a:5d:81
                Exponent: 65537 (0x10001)
        X509v3 extensions:
            X509v3 Basic Constraints: 
                CA:FALSE
            Netscape Cert Type: 
                SSL Client, SSL Server, S/MIME
            X509v3 Extended Key Usage: 
                TLS Web Server Authentication, E-mail Protection, TLS Web Client Authentication
            X509v3 Key Usage: 
                Digital Signature, Non Repudiation, Key Encipherment
            X509v3 Subject Key Identifier: 
                54:11:7C:09:55:44:1C:94:45:A9:A2:76:46:2B:2C:24:26:6A:44:E8
            X509v3 CRL Distribution Points: 
                URI:http://ca.mit.edu/ca/mitserver.crl

    Signature Algorithm: sha1WithRSAEncryption
        2b:65:32:88:e5:59:56:43:d3:b7:8f:10:5c:6a:5b:b3:1d:80:
        ad:4c:60:3b:7f:7e:28:ec:85:5b:53:0c:05:36:aa:5d:7c:62:
        e7:4b:f7:a4:e0:98:a7:91:26:e9:0a:13:19:af:c0:88:83:3d:
        3a:46:31:7f:c8:6e:15:d4:1f:6a:6e:94:6e:56:7b:d9:74:34:
        10:62:81:81:00:91:6f:7a:5e:b2:ce:49:e1:a7:41:c6:49:c4:
        a4:2e:9b:2b:52:7e:7d:1b:10:1a:f4:08:48:34:b3:e3:39:fa:
        9a:42:7c:b8:0e:64:3d:5e:32:ff:7a:dd:39:2f:e2:09:d2:f7:
        2f:40
-----BEGIN CERTIFICATE-----
MIIDfjCCAuegAwIBAgIRAIIlw5Leftj4eMa9WAeqbF4wDQYJKoZIhvcNAQEFBQAw
ezELMAkGA1UEBhMCVVMxFjAUBgNVBAgTDU1hc3NhY2h1c2V0dHMxLjAsBgNVBAoT
JU1hc3NhY2h1c2V0dHMgSW5zdGl0dXRlIG9mIFRlY2hub2xvZ3kxJDAiBgNVBAsT
G01JVCBDZXJ0aWZpY2F0aW9uIEF1dGhvcml0eTAeFw0xMDAxMTkxNzAwMDBaFw0x
MTAxMjAxNzAwMDBaMIHQMQswCQYDVQQGEwJVUzEWMBQGA1UECBMNTWFzc2FjaHVz
ZXR0czESMBAGA1UEBxMJQ2FtYnJpZGdlMS4wLAYDVQQKEyVNYXNzYWNodXNldHRz
IEluc3RpdHV0ZSBvZiBUZWNobm9sb2d5MSwwKgYDVQQLEyNzY3JpcHRzLm1pdC5l
ZHUgd2ViIGhvc3Rpbmcgc2VydmljZTEXMBUGA1UEAxMOcGlja2VyLm1pdC5lZHUx
HjAcBgkqhkiG9w0BCQEWD3NjcmlwdHNAbWl0LmVkdTCBnzANBgkqhkiG9w0BAQEF
AAOBjQAwgYkCgYEAtT4hTcGJawGMR4D+szcndvhSQeaiPUt2eOXyZjwPsa37l48u
orZT07YO4mb5uQu3zrTV9RwfbyJ9SPVt8BbNjkh50RRKFC8v+MS9HYfPfYtcd61Y
JLAOoW3WCsfYvC9nZchd2NgxwmdLSvShpVSCr8s0CCoEf458TLfb3GqKXYECAwEA
AaOBqzCBqDAJBgNVHRMEAjAAMBEGCWCGSAGG+EIBAQQEAwIF4DAnBgNVHSUEIDAe
BggrBgEFBQcDAQYIKwYBBQUHAwQGCCsGAQUFBwMCMAsGA1UdDwQEAwIF4DAdBgNV
HQ4EFgQUVBF8CVVEHJRFqaJ2RissJCZqROgwMwYDVR0fBCwwKjAooCagJIYiaHR0
cDovL2NhLm1pdC5lZHUvY2EvbWl0c2VydmVyLmNybDANBgkqhkiG9w0BAQUFAAOB
gQArZTKI5VlWQ9O3jxBcaluzHYCtTGA7f34o7IVbUwwFNqpdfGLnS/ek4JinkSbp
ChMZr8CIgz06RjF/yG4V1B9qbpRuVnvZdDQQYoGBAJFvel6yzknhp0HGScSkLpsr
Un59GxAa9AhINLPjOfqaQny4DmQ9XjL/et05L+IJ0vcvQA==
-----END CERTIFICATE-----

