Certificate:
    Data:
        Version: 3 (0x2)
        Serial Number:
            3a:a4:d9:99:36:68:5d:43:8b:69:1f:a7:b0:62:08:01
        Signature Algorithm: sha1WithRSAEncryption
        Issuer: C=US, ST=Massachusetts, O=Massachusetts Institute of Technology, OU=MIT Certification Authority
        Validity
            Not Before: Apr  9 16:00:00 2010 GMT
            Not After : Apr  7 16:00:00 2011 GMT
        Subject: C=US, ST=Massachusetts, L=Cambridge, O=Massachusetts Institute of Technology, OU=scripts.mit.edu web hosting service, CN=quickprint.mit.edu/emailAddress=scripts@mit.edu
        Subject Public Key Info:
            Public Key Algorithm: rsaEncryption
            RSA Public Key: (1024 bit)
                Modulus (1024 bit):
                    00:b5:3e:21:4d:c1:89:6b:01:8c:47:80:fe:b3:37:
                    27:76:f8:52:41:e6:a2:3d:4b:76:78:e5:f2:66:3c:
                    0f:b1:ad:fb:97:8f:2e:a2:b6:53:d3:b6:0e:e2:66:
                    f9:b9:0b:b7:ce:b4:d5:f5:1c:1f:6f:22:7d:48:f5:
                    6d:f0:16:cd:8e:48:79:d1:14:4a:14:2f:2f:f8:c4:
                    bd:1d:87:cf:7d:8b:5c:77:ad:58:24:b0:0e:a1:6d:
                    d6:0a:c7:d8:bc:2f:67:65:c8:5d:d8:d8:31:c2:67:
                    4b:4a:f4:a1:a5:54:82:af:cb:34:08:2a:04:7f:8e:
                    7c:4c:b7:db:dc:6a:8a:5d:81
                Exponent: 65537 (0x10001)
        X509v3 extensions:
            X509v3 Basic Constraints: 
                CA:FALSE
            Netscape Cert Type: 
                SSL Client, SSL Server, S/MIME
            X509v3 Extended Key Usage: 
                TLS Web Server Authentication, E-mail Protection, TLS Web Client Authentication
            X509v3 Key Usage: 
                Digital Signature, Non Repudiation, Key Encipherment
            X509v3 Subject Key Identifier: 
                54:11:7C:09:55:44:1C:94:45:A9:A2:76:46:2B:2C:24:26:6A:44:E8
            X509v3 CRL Distribution Points: 
                URI:http://ca.mit.edu/ca/mitserver.crl

    Signature Algorithm: sha1WithRSAEncryption
        03:bd:43:fb:9f:44:53:32:6f:bf:b0:e5:d5:ce:c5:a7:67:64:
        a2:da:d1:65:39:a8:dd:ab:29:cd:84:bb:b2:b8:91:d6:18:1a:
        99:0b:18:12:83:2d:94:7a:01:3a:cf:5a:cc:0b:23:27:85:7b:
        7b:fd:f3:7d:d0:4b:cc:ef:7b:2d:16:bc:31:05:9e:af:d8:e2:
        cd:b2:46:86:0b:b5:c7:4d:57:85:9a:59:56:aa:59:86:17:64:
        4a:18:ac:37:01:e0:b3:a0:50:e3:f0:65:8f:38:0c:17:ef:8b:
        fc:d2:bf:67:8a:a7:67:a8:5e:8a:a1:57:9b:18:07:c9:16:92:
        44:42
-----BEGIN CERTIFICATE-----
MIIDgTCCAuqgAwIBAgIQOqTZmTZoXUOLaR+nsGIIATANBgkqhkiG9w0BAQUFADB7
MQswCQYDVQQGEwJVUzEWMBQGA1UECBMNTWFzc2FjaHVzZXR0czEuMCwGA1UEChMl
TWFzc2FjaHVzZXR0cyBJbnN0aXR1dGUgb2YgVGVjaG5vbG9neTEkMCIGA1UECxMb
TUlUIENlcnRpZmljYXRpb24gQXV0aG9yaXR5MB4XDTEwMDQwOTE2MDAwMFoXDTEx
MDQwNzE2MDAwMFowgdQxCzAJBgNVBAYTAlVTMRYwFAYDVQQIEw1NYXNzYWNodXNl
dHRzMRIwEAYDVQQHEwlDYW1icmlkZ2UxLjAsBgNVBAoTJU1hc3NhY2h1c2V0dHMg
SW5zdGl0dXRlIG9mIFRlY2hub2xvZ3kxLDAqBgNVBAsTI3NjcmlwdHMubWl0LmVk
dSB3ZWIgaG9zdGluZyBzZXJ2aWNlMRswGQYDVQQDExJxdWlja3ByaW50Lm1pdC5l
ZHUxHjAcBgkqhkiG9w0BCQEWD3NjcmlwdHNAbWl0LmVkdTCBnzANBgkqhkiG9w0B
AQEFAAOBjQAwgYkCgYEAtT4hTcGJawGMR4D+szcndvhSQeaiPUt2eOXyZjwPsa37
l48uorZT07YO4mb5uQu3zrTV9RwfbyJ9SPVt8BbNjkh50RRKFC8v+MS9HYfPfYtc
d61YJLAOoW3WCsfYvC9nZchd2NgxwmdLSvShpVSCr8s0CCoEf458TLfb3GqKXYEC
AwEAAaOBqzCBqDAJBgNVHRMEAjAAMBEGCWCGSAGG+EIBAQQEAwIF4DAnBgNVHSUE
IDAeBggrBgEFBQcDAQYIKwYBBQUHAwQGCCsGAQUFBwMCMAsGA1UdDwQEAwIF4DAd
BgNVHQ4EFgQUVBF8CVVEHJRFqaJ2RissJCZqROgwMwYDVR0fBCwwKjAooCagJIYi
aHR0cDovL2NhLm1pdC5lZHUvY2EvbWl0c2VydmVyLmNybDANBgkqhkiG9w0BAQUF
AAOBgQADvUP7n0RTMm+/sOXVzsWnZ2Si2tFlOajdqynNhLuyuJHWGBqZCxgSgy2U
egE6z1rMCyMnhXt7/fN90EvM73stFrwxBZ6v2OLNskaGC7XHTVeFmllWqlmGF2RK
GKw3AeCzoFDj8GWPOAwX74v80r9niqdnqF6KoVebGAfJFpJEQg==
-----END CERTIFICATE-----
