From mitcert@MIT.EDU Thu Nov 18 09:28:35 2010
Date: Thu, 18 Nov 2010 09:28:34 -0500 (EST)
From: mitcert@MIT.EDU
To: geofft@mit.edu
Subject: CSR for scripts site "sayno.mit.edu"  [help.mit.edu #1406502]

Certificate:
    Data:
        Version: 3 (0x2)
        Serial Number:
            b9:05:8a:21:20:b2:56:82:46:30:25:5f:d7:a6:52:ca
        Signature Algorithm: sha1WithRSAEncryption
        Issuer: C=US, ST=Massachusetts, O=Massachusetts Institute of Technology, OU=MIT Certification Authority
        Validity
            Not Before: Nov 16 17:00:00 2010 GMT
            Not After : Nov 17 17:00:00 2011 GMT
        Subject: C=US, ST=Massachusetts, L=Cambridge, O=Massachusetts Institute of Technology, OU=scripts.mit.edu web hosting service, CN=sayno.mit.edu/emailAddress=scripts@mit.edu
        Subject Public Key Info:
            Public Key Algorithm: rsaEncryption
            RSA Public Key: (1024 bit)
                Modulus (1024 bit):
                    00:b5:3e:21:4d:c1:89:6b:01:8c:47:80:fe:b3:37:
                    27:76:f8:52:41:e6:a2:3d:4b:76:78:e5:f2:66:3c:
                    0f:b1:ad:fb:97:8f:2e:a2:b6:53:d3:b6:0e:e2:66:
                    f9:b9:0b:b7:ce:b4:d5:f5:1c:1f:6f:22:7d:48:f5:
                    6d:f0:16:cd:8e:48:79:d1:14:4a:14:2f:2f:f8:c4:
                    bd:1d:87:cf:7d:8b:5c:77:ad:58:24:b0:0e:a1:6d:
                    d6:0a:c7:d8:bc:2f:67:65:c8:5d:d8:d8:31:c2:67:
                    4b:4a:f4:a1:a5:54:82:af:cb:34:08:2a:04:7f:8e:
                    7c:4c:b7:db:dc:6a:8a:5d:81
                Exponent: 65537 (0x10001)
        X509v3 extensions:
            X509v3 Basic Constraints: 
                CA:FALSE
            Netscape Cert Type: 
                SSL Client, SSL Server, S/MIME
            X509v3 Extended Key Usage: 
                TLS Web Server Authentication, E-mail Protection, TLS Web Client Authentication
            X509v3 Key Usage: 
                Digital Signature, Non Repudiation, Key Encipherment
            X509v3 Subject Key Identifier: 
                54:11:7C:09:55:44:1C:94:45:A9:A2:76:46:2B:2C:24:26:6A:44:E8
            X509v3 CRL Distribution Points: 
                URI:http://ca.mit.edu/ca/mitserver.crl

    Signature Algorithm: sha1WithRSAEncryption
        85:9d:2c:db:ab:7a:5a:d7:bc:d5:22:db:ba:2c:15:7b:d3:e5:
        57:68:b1:f2:ce:70:e3:f7:a5:bb:15:26:f6:de:62:89:2b:a3:
        27:69:45:fb:e5:8c:be:eb:d2:43:aa:a2:6e:e9:63:c4:94:64:
        14:2b:0a:2e:6c:5c:42:40:ae:50:90:42:49:46:c6:7e:1b:98:
        2a:bc:77:ae:f3:31:1b:ce:dc:f1:88:1b:6b:b5:23:3b:a6:d1:
        8b:f6:ef:72:32:8c:d6:55:d4:c9:fe:0a:96:5a:7e:e2:68:00:
        a6:5b:09:2b:cf:0a:7b:a0:6d:b3:82:7c:b7:46:a4:70:38:52:
        35:29
-----BEGIN CERTIFICATE-----
MIIDfTCCAuagAwIBAgIRALkFiiEgslaCRjAlX9emUsowDQYJKoZIhvcNAQEFBQAw
ezELMAkGA1UEBhMCVVMxFjAUBgNVBAgTDU1hc3NhY2h1c2V0dHMxLjAsBgNVBAoT
JU1hc3NhY2h1c2V0dHMgSW5zdGl0dXRlIG9mIFRlY2hub2xvZ3kxJDAiBgNVBAsT
G01JVCBDZXJ0aWZpY2F0aW9uIEF1dGhvcml0eTAeFw0xMDExMTYxNzAwMDBaFw0x
MTExMTcxNzAwMDBaMIHPMQswCQYDVQQGEwJVUzEWMBQGA1UECBMNTWFzc2FjaHVz
ZXR0czESMBAGA1UEBxMJQ2FtYnJpZGdlMS4wLAYDVQQKEyVNYXNzYWNodXNldHRz
IEluc3RpdHV0ZSBvZiBUZWNobm9sb2d5MSwwKgYDVQQLEyNzY3JpcHRzLm1pdC5l
ZHUgd2ViIGhvc3Rpbmcgc2VydmljZTEWMBQGA1UEAxMNc2F5bm8ubWl0LmVkdTEe
MBwGCSqGSIb3DQEJARYPc2NyaXB0c0BtaXQuZWR1MIGfMA0GCSqGSIb3DQEBAQUA
A4GNADCBiQKBgQC1PiFNwYlrAYxHgP6zNyd2+FJB5qI9S3Z45fJmPA+xrfuXjy6i
tlPTtg7iZvm5C7fOtNX1HB9vIn1I9W3wFs2OSHnRFEoULy/4xL0dh899i1x3rVgk
sA6hbdYKx9i8L2dlyF3Y2DHCZ0tK9KGlVIKvyzQIKgR/jnxMt9vcaopdgQIDAQAB
o4GrMIGoMAkGA1UdEwQCMAAwEQYJYIZIAYb4QgEBBAQDAgXgMCcGA1UdJQQgMB4G
CCsGAQUFBwMBBggrBgEFBQcDBAYIKwYBBQUHAwIwCwYDVR0PBAQDAgXgMB0GA1Ud
DgQWBBRUEXwJVUQclEWponZGKywkJmpE6DAzBgNVHR8ELDAqMCigJqAkhiJodHRw
Oi8vY2EubWl0LmVkdS9jYS9taXRzZXJ2ZXIuY3JsMA0GCSqGSIb3DQEBBQUAA4GB
AIWdLNurelrXvNUi27osFXvT5VdosfLOcOP3pbsVJvbeYokroydpRfvljL7r0kOq
om7pY8SUZBQrCi5sXEJArlCQQklGxn4bmCq8d67zMRvO3PGIG2u1Izum0Yv273Iy
jNZV1Mn+CpZafuJoAKZbCSvPCnugbbOCfLdGpHA4UjUp
-----END CERTIFICATE-----

