From mitcert@MIT.EDU Tue Mar  3 00:33:33 2009
Date: Tue, 3 Mar 2009 00:32:10 -0500 (EST)
From: mitcert@MIT.EDU
To: geofft@mit.edu
Subject: CSR for scripts vhost schuh.mit.edu  [help.mit.edu #821992]

Certificate:
    Data:
        Version: 3 (0x2)
        Serial Number: 3331 (0xd03)
        Signature Algorithm: sha1WithRSAEncryption
        Issuer: C=US, ST=Massachusetts, O=Massachusetts Institute of Technology, OU=MIT Certification Authority
        Validity
            Not Before: Mar  1 17:00:00 2009 GMT
            Not After : Mar  1 17:00:00 2010 GMT
        Subject: C=US, ST=Massachusetts, L=Cambridge, O=Massachusetts Institute of Technology, OU=Student Information Processing Board, CN=schuh.mit.edu/Email=scripts@mit.edu
        Subject Public Key Info:
            Public Key Algorithm: rsaEncryption
            RSA Public Key: (1024 bit)
                Modulus (1024 bit):
                    00:b5:3e:21:4d:c1:89:6b:01:8c:47:80:fe:b3:37:
                    27:76:f8:52:41:e6:a2:3d:4b:76:78:e5:f2:66:3c:
                    0f:b1:ad:fb:97:8f:2e:a2:b6:53:d3:b6:0e:e2:66:
                    f9:b9:0b:b7:ce:b4:d5:f5:1c:1f:6f:22:7d:48:f5:
                    6d:f0:16:cd:8e:48:79:d1:14:4a:14:2f:2f:f8:c4:
                    bd:1d:87:cf:7d:8b:5c:77:ad:58:24:b0:0e:a1:6d:
                    d6:0a:c7:d8:bc:2f:67:65:c8:5d:d8:d8:31:c2:67:
                    4b:4a:f4:a1:a5:54:82:af:cb:34:08:2a:04:7f:8e:
                    7c:4c:b7:db:dc:6a:8a:5d:81
                Exponent: 65537 (0x10001)
        X509v3 extensions:
            X509v3 Basic Constraints: 
                CA:FALSE
            Netscape Cert Type: 
                SSL Client, SSL Server, S/MIME
            X509v3 Extended Key Usage: 
                TLS Web Server Authentication, E-mail Protection, TLS Web Client Authentication
            X509v3 Key Usage: 
                Digital Signature, Non Repudiation, Key Encipherment
            X509v3 Subject Key Identifier: 
                54:11:7C:09:55:44:1C:94:45:A9:A2:76:46:2B:2C:24:26:6A:44:E8
    Signature Algorithm: sha1WithRSAEncryption
        a1:12:c3:df:fc:16:6d:95:44:a4:b8:cb:f0:fe:36:9a:27:21:
        71:2e:da:1c:cf:10:2c:fd:ae:bd:72:ca:34:12:b7:e7:5e:1c:
        45:61:4e:9d:9e:ac:6f:33:30:24:f7:3d:9e:28:1e:62:fe:88:
        c1:0b:ab:b7:2c:c7:90:8f:44:10:82:7f:4e:29:7e:bf:8b:e4:
        aa:68:aa:b8:be:92:95:d6:e7:52:1e:19:e9:d0:d5:b9:b6:85:
        d1:bc:de:ac:3f:9d:5d:3b:a1:2d:4d:f6:fe:40:e7:11:45:86:
        27:be:5b:da:f7:02:b6:85:8b:3b:29:25:f3:31:86:bc:4e:cd:
        e1:57
-----BEGIN CERTIFICATE-----
MIIDODCCAqGgAwIBAgICDQMwDQYJKoZIhvcNAQEFBQAwezELMAkGA1UEBhMCVVMx
FjAUBgNVBAgTDU1hc3NhY2h1c2V0dHMxLjAsBgNVBAoTJU1hc3NhY2h1c2V0dHMg
SW5zdGl0dXRlIG9mIFRlY2hub2xvZ3kxJDAiBgNVBAsTG01JVCBDZXJ0aWZpY2F0
aW9uIEF1dGhvcml0eTAeFw0wOTAzMDExNzAwMDBaFw0xMDAzMDExNzAwMDBaMIHQ
MQswCQYDVQQGEwJVUzEWMBQGA1UECBMNTWFzc2FjaHVzZXR0czESMBAGA1UEBxMJ
Q2FtYnJpZGdlMS4wLAYDVQQKEyVNYXNzYWNodXNldHRzIEluc3RpdHV0ZSBvZiBU
ZWNobm9sb2d5MS0wKwYDVQQLEyRTdHVkZW50IEluZm9ybWF0aW9uIFByb2Nlc3Np
bmcgQm9hcmQxFjAUBgNVBAMTDXNjaHVoLm1pdC5lZHUxHjAcBgkqhkiG9w0BCQEW
D3NjcmlwdHNAbWl0LmVkdTCBnzANBgkqhkiG9w0BAQEFAAOBjQAwgYkCgYEAtT4h
TcGJawGMR4D+szcndvhSQeaiPUt2eOXyZjwPsa37l48uorZT07YO4mb5uQu3zrTV
9RwfbyJ9SPVt8BbNjkh50RRKFC8v+MS9HYfPfYtcd61YJLAOoW3WCsfYvC9nZchd
2NgxwmdLSvShpVSCr8s0CCoEf458TLfb3GqKXYECAwEAAaN1MHMwCQYDVR0TBAIw
ADARBglghkgBhvhCAQEEBAMCBeAwJwYDVR0lBCAwHgYIKwYBBQUHAwEGCCsGAQUF
BwMEBggrBgEFBQcDAjALBgNVHQ8EBAMCBeAwHQYDVR0OBBYEFFQRfAlVRByURami
dkYrLCQmakToMA0GCSqGSIb3DQEBBQUAA4GBAKESw9/8Fm2VRKS4y/D+NponIXEu
2hzPECz9rr1yyjQSt+deHEVhTp2erG8zMCT3PZ4oHmL+iMELq7csx5CPRBCCf04p
fr+L5Kpoqri+kpXW51IeGenQ1bm2hdG83qw/nV07oS1N9v5A5xFFhie+W9r3AraF
izspJfMxhrxOzeFX
-----END CERTIFICATE-----

