From mitcert@MIT.EDU Wed Jun 23 22:32:29 2010
Date: Wed, 23 Jun 2010 22:32:27 -0400 (EDT)
From: mitcert@MIT.EDU
To: scripts-root@mit.edu
Subject: CSR for scripts-cert@mit.edu  [help.mit.edu #1269024]

Certificate:
    Data:
        Version: 3 (0x2)
        Serial Number:
            62:d0:96:53:78:eb:91:3f:dd:66:93:e3:c0:d2:ed:ee
        Signature Algorithm: sha1WithRSAEncryption
        Issuer: C=US, ST=Massachusetts, O=Massachusetts Institute of Technology, OU=MIT Certification Authority
        Validity
            Not Before: Jun 22 16:00:00 2010 GMT
            Not After : Jun 23 16:00:00 2011 GMT
        Subject: C=US, ST=Massachusetts, L=Cambridge, O=Massachusetts Institute of Technology, OU=scripts.mit.edu web hosting service, CN=scripts-cert.mit.edu/emailAddress=scripts@mit.edu
        Subject Public Key Info:
            Public Key Algorithm: rsaEncryption
            RSA Public Key: (1024 bit)
                Modulus (1024 bit):
                    00:b5:3e:21:4d:c1:89:6b:01:8c:47:80:fe:b3:37:
                    27:76:f8:52:41:e6:a2:3d:4b:76:78:e5:f2:66:3c:
                    0f:b1:ad:fb:97:8f:2e:a2:b6:53:d3:b6:0e:e2:66:
                    f9:b9:0b:b7:ce:b4:d5:f5:1c:1f:6f:22:7d:48:f5:
                    6d:f0:16:cd:8e:48:79:d1:14:4a:14:2f:2f:f8:c4:
                    bd:1d:87:cf:7d:8b:5c:77:ad:58:24:b0:0e:a1:6d:
                    d6:0a:c7:d8:bc:2f:67:65:c8:5d:d8:d8:31:c2:67:
                    4b:4a:f4:a1:a5:54:82:af:cb:34:08:2a:04:7f:8e:
                    7c:4c:b7:db:dc:6a:8a:5d:81
                Exponent: 65537 (0x10001)
        X509v3 extensions:
            X509v3 Basic Constraints: 
                CA:FALSE
            Netscape Cert Type: 
                SSL Client, SSL Server, S/MIME
            X509v3 Extended Key Usage: 
                TLS Web Server Authentication, E-mail Protection, TLS Web Client Authentication
            X509v3 Key Usage: 
                Digital Signature, Non Repudiation, Key Encipherment
            X509v3 Subject Key Identifier: 
                54:11:7C:09:55:44:1C:94:45:A9:A2:76:46:2B:2C:24:26:6A:44:E8
            X509v3 CRL Distribution Points: 
                URI:http://ca.mit.edu/ca/mitserver.crl

    Signature Algorithm: sha1WithRSAEncryption
        b5:59:50:6b:e1:e1:ac:15:2b:df:7c:97:7b:28:e0:ed:65:7e:
        2c:bf:5b:a7:83:0d:75:8f:3e:6a:bb:31:a9:d2:86:90:87:bb:
        f9:6d:8d:2f:07:3b:43:bf:84:77:c3:e6:2b:75:8a:bc:56:35:
        dd:5b:6f:20:0f:26:d7:1d:ab:23:71:4f:39:a2:64:a2:9f:28:
        78:ec:3e:e9:b5:d6:f5:66:1b:1a:22:c2:86:9d:68:3a:6d:13:
        79:86:ff:df:c8:1d:f5:3f:c4:85:78:d7:41:7e:6c:f0:6a:af:
        39:27:3d:1e:74:dc:5a:07:33:bb:f8:4b:db:e4:dc:b0:e9:99:
        09:25
-----BEGIN CERTIFICATE-----
MIIDgzCCAuygAwIBAgIQYtCWU3jrkT/dZpPjwNLt7jANBgkqhkiG9w0BAQUFADB7
MQswCQYDVQQGEwJVUzEWMBQGA1UECBMNTWFzc2FjaHVzZXR0czEuMCwGA1UEChMl
TWFzc2FjaHVzZXR0cyBJbnN0aXR1dGUgb2YgVGVjaG5vbG9neTEkMCIGA1UECxMb
TUlUIENlcnRpZmljYXRpb24gQXV0aG9yaXR5MB4XDTEwMDYyMjE2MDAwMFoXDTEx
MDYyMzE2MDAwMFowgdYxCzAJBgNVBAYTAlVTMRYwFAYDVQQIEw1NYXNzYWNodXNl
dHRzMRIwEAYDVQQHEwlDYW1icmlkZ2UxLjAsBgNVBAoTJU1hc3NhY2h1c2V0dHMg
SW5zdGl0dXRlIG9mIFRlY2hub2xvZ3kxLDAqBgNVBAsTI3NjcmlwdHMubWl0LmVk
dSB3ZWIgaG9zdGluZyBzZXJ2aWNlMR0wGwYDVQQDExRzY3JpcHRzLWNlcnQubWl0
LmVkdTEeMBwGCSqGSIb3DQEJARYPc2NyaXB0c0BtaXQuZWR1MIGfMA0GCSqGSIb3
DQEBAQUAA4GNADCBiQKBgQC1PiFNwYlrAYxHgP6zNyd2+FJB5qI9S3Z45fJmPA+x
rfuXjy6itlPTtg7iZvm5C7fOtNX1HB9vIn1I9W3wFs2OSHnRFEoULy/4xL0dh899
i1x3rVgksA6hbdYKx9i8L2dlyF3Y2DHCZ0tK9KGlVIKvyzQIKgR/jnxMt9vcaopd
gQIDAQABo4GrMIGoMAkGA1UdEwQCMAAwEQYJYIZIAYb4QgEBBAQDAgXgMCcGA1Ud
JQQgMB4GCCsGAQUFBwMBBggrBgEFBQcDBAYIKwYBBQUHAwIwCwYDVR0PBAQDAgXg
MB0GA1UdDgQWBBRUEXwJVUQclEWponZGKywkJmpE6DAzBgNVHR8ELDAqMCigJqAk
hiJodHRwOi8vY2EubWl0LmVkdS9jYS9taXRzZXJ2ZXIuY3JsMA0GCSqGSIb3DQEB
BQUAA4GBALVZUGvh4awVK998l3so4O1lfiy/W6eDDXWPPmq7ManShpCHu/ltjS8H
O0O/hHfD5it1irxWNd1bbyAPJtcdqyNxTzmiZKKfKHjsPum11vVmGxoiwoadaDpt
E3mG/9/IHfU/xIV410F+bPBqrzknPR503FoHM7v4S9vk3LDpmQkl
-----END CERTIFICATE-----

