Certificate:
    Data:
        Version: 3 (0x2)
        Serial Number: 745256 (0xb5f28)
        Signature Algorithm: sha1WithRSAEncryption
        Issuer: C=US, O=Equifax, OU=Equifax Secure Certificate Authority
        Validity
            Not Before: Jun  4 20:22:36 2009 GMT
            Not After : Jun  7 02:53:00 2011 GMT
        Subject: C=US, ST=Massachusetts, L=Cambridge, O=Massachusetts Institute of Technology, OU=Student Information Processing Board, CN=scripts.mit.edu
        Subject Public Key Info:
            Public Key Algorithm: rsaEncryption
            RSA Public Key: (1024 bit)
                Modulus (1024 bit):
                    00:b5:3e:21:4d:c1:89:6b:01:8c:47:80:fe:b3:37:
                    27:76:f8:52:41:e6:a2:3d:4b:76:78:e5:f2:66:3c:
                    0f:b1:ad:fb:97:8f:2e:a2:b6:53:d3:b6:0e:e2:66:
                    f9:b9:0b:b7:ce:b4:d5:f5:1c:1f:6f:22:7d:48:f5:
                    6d:f0:16:cd:8e:48:79:d1:14:4a:14:2f:2f:f8:c4:
                    bd:1d:87:cf:7d:8b:5c:77:ad:58:24:b0:0e:a1:6d:
                    d6:0a:c7:d8:bc:2f:67:65:c8:5d:d8:d8:31:c2:67:
                    4b:4a:f4:a1:a5:54:82:af:cb:34:08:2a:04:7f:8e:
                    7c:4c:b7:db:dc:6a:8a:5d:81
                Exponent: 65537 (0x10001)
        X509v3 extensions:
            X509v3 Key Usage: critical
                Digital Signature, Non Repudiation, Key Encipherment, Data Encipherment
            X509v3 Subject Key Identifier: 
                54:11:7C:09:55:44:1C:94:45:A9:A2:76:46:2B:2C:24:26:6A:44:E8
            X509v3 CRL Distribution Points: 
                URI:http://crl.geotrust.com/crls/secureca.crl

            X509v3 Authority Key Identifier: 
                keyid:48:E6:68:F9:2B:D2:B2:95:D7:47:D8:23:20:10:4F:33:98:90:9F:D4

            X509v3 Extended Key Usage: 
                TLS Web Server Authentication, TLS Web Client Authentication
    Signature Algorithm: sha1WithRSAEncryption
        0e:42:72:ba:24:61:07:eb:69:d6:3e:4a:e9:ec:a3:f8:16:c0:
        a2:31:2d:f0:93:ec:37:2c:dc:c0:7c:a6:9e:60:52:d4:c6:af:
        f4:c7:cb:f0:ad:bf:3c:b8:34:a7:1e:35:c3:15:84:f6:79:96:
        f3:ec:d7:78:62:83:81:b5:bb:5e:77:0a:19:b6:d1:9f:ae:a9:
        0b:f6:8a:7c:71:1e:a9:8e:e7:3d:e7:a6:38:47:3a:9f:0c:69:
        37:a1:3f:0e:44:77:47:b9:75:4a:49:08:f3:42:43:58:2c:24:
        d2:b9:5b:9c:8b:9a:5f:b6:83:cc:bb:ec:26:65:b7:75:50:83:
        a6:5b
-----BEGIN CERTIFICATE-----
MIIDKDCCApGgAwIBAgIDC18oMA0GCSqGSIb3DQEBBQUAME4xCzAJBgNVBAYTAlVT
MRAwDgYDVQQKEwdFcXVpZmF4MS0wKwYDVQQLEyRFcXVpZmF4IFNlY3VyZSBDZXJ0
aWZpY2F0ZSBBdXRob3JpdHkwHhcNMDkwNjA0MjAyMjM2WhcNMTEwNjA3MDI1MzAw
WjCBsjELMAkGA1UEBhMCVVMxFjAUBgNVBAgTDU1hc3NhY2h1c2V0dHMxEjAQBgNV
BAcTCUNhbWJyaWRnZTEuMCwGA1UEChMlTWFzc2FjaHVzZXR0cyBJbnN0aXR1dGUg
b2YgVGVjaG5vbG9neTEtMCsGA1UECxMkU3R1ZGVudCBJbmZvcm1hdGlvbiBQcm9j
ZXNzaW5nIEJvYXJkMRgwFgYDVQQDEw9zY3JpcHRzLm1pdC5lZHUwgZ8wDQYJKoZI
hvcNAQEBBQADgY0AMIGJAoGBALU+IU3BiWsBjEeA/rM3J3b4UkHmoj1Ldnjl8mY8
D7Gt+5ePLqK2U9O2DuJm+bkLt8601fUcH28ifUj1bfAWzY5IedEUShQvL/jEvR2H
z32LXHetWCSwDqFt1grH2LwvZ2XIXdjYMcJnS0r0oaVUgq/LNAgqBH+OfEy329xq
il2BAgMBAAGjga4wgaswDgYDVR0PAQH/BAQDAgTwMB0GA1UdDgQWBBRUEXwJVUQc
lEWponZGKywkJmpE6DA6BgNVHR8EMzAxMC+gLaArhilodHRwOi8vY3JsLmdlb3Ry
dXN0LmNvbS9jcmxzL3NlY3VyZWNhLmNybDAfBgNVHSMEGDAWgBRI5mj5K9KylddH
2CMgEE8zmJCf1DAdBgNVHSUEFjAUBggrBgEFBQcDAQYIKwYBBQUHAwIwDQYJKoZI
hvcNAQEFBQADgYEADkJyuiRhB+tp1j5K6eyj+BbAojEt8JPsNyzcwHymnmBS1Mav
9MfL8K2/PLg0px41wxWE9nmW8+zXeGKDgbW7XncKGbbRn66pC/aKfHEeqY7nPeem
OEc6nwxpN6E/DkR3R7l1SkkI80JDWCwk0rlbnIuaX7aDzLvsJmW3dVCDpls=
-----END CERTIFICATE-----
