Certificate:
    Data:
        Version: 3 (0x2)
        Serial Number: 2872 (0xb38)
        Signature Algorithm: sha1WithRSAEncryption
        Issuer: C=US, ST=Massachusetts, O=Massachusetts Institute of Technology, OU=MIT Certification Authority
        Validity
            Not Before: Jul 23 16:00:00 2008 GMT
            Not After : Jul 23 16:00:00 2009 GMT
        Subject: C=US, ST=Massachusetts, L=Cambridge, O=Massachusetts Institute of Technology, OU=Student Information Processing Board, CN=scripts-cert.mit.edu/Email=scripts@mit.edu
        Subject Public Key Info:
            Public Key Algorithm: rsaEncryption
            RSA Public Key: (1024 bit)
                Modulus (1024 bit):
                    00:b5:3e:21:4d:c1:89:6b:01:8c:47:80:fe:b3:37:
                    27:76:f8:52:41:e6:a2:3d:4b:76:78:e5:f2:66:3c:
                    0f:b1:ad:fb:97:8f:2e:a2:b6:53:d3:b6:0e:e2:66:
                    f9:b9:0b:b7:ce:b4:d5:f5:1c:1f:6f:22:7d:48:f5:
                    6d:f0:16:cd:8e:48:79:d1:14:4a:14:2f:2f:f8:c4:
                    bd:1d:87:cf:7d:8b:5c:77:ad:58:24:b0:0e:a1:6d:
                    d6:0a:c7:d8:bc:2f:67:65:c8:5d:d8:d8:31:c2:67:
                    4b:4a:f4:a1:a5:54:82:af:cb:34:08:2a:04:7f:8e:
                    7c:4c:b7:db:dc:6a:8a:5d:81
                Exponent: 65537 (0x10001)
        X509v3 extensions:
            X509v3 Basic Constraints: 
                CA:FALSE
            Netscape Cert Type: 
                SSL Client, SSL Server, S/MIME
            X509v3 Extended Key Usage: 
                TLS Web Server Authentication, E-mail Protection, TLS Web Client Authentication
            X509v3 Key Usage: 
                Digital Signature, Non Repudiation, Key Encipherment
            X509v3 Subject Key Identifier: 
                54:11:7C:09:55:44:1C:94:45:A9:A2:76:46:2B:2C:24:26:6A:44:E8
    Signature Algorithm: sha1WithRSAEncryption
        38:a3:3b:c2:d6:cb:5b:36:65:89:c4:c1:fc:c8:5f:b5:07:a2:
        85:0b:59:22:f7:b3:a9:97:b7:81:32:4d:3f:17:69:6c:6f:f3:
        64:de:75:bf:e6:16:98:88:cf:24:f2:07:10:fe:d2:e8:66:42:
        10:2d:42:d5:80:14:e6:55:0e:8f:c4:28:e9:39:f1:cd:a4:4a:
        c5:93:15:45:08:c9:b6:3e:7e:4c:e7:1f:ee:0d:53:91:37:1f:
        dd:e2:da:97:f0:a9:ce:98:c0:5d:46:11:12:66:5f:7f:11:fc:
        80:2a:36:d8:ca:68:ad:5c:3d:12:5b:32:af:1b:ad:e0:36:6d:
        e2:f1
-----BEGIN CERTIFICATE-----
MIIDPzCCAqigAwIBAgICCzgwDQYJKoZIhvcNAQEFBQAwezELMAkGA1UEBhMCVVMx
FjAUBgNVBAgTDU1hc3NhY2h1c2V0dHMxLjAsBgNVBAoTJU1hc3NhY2h1c2V0dHMg
SW5zdGl0dXRlIG9mIFRlY2hub2xvZ3kxJDAiBgNVBAsTG01JVCBDZXJ0aWZpY2F0
aW9uIEF1dGhvcml0eTAeFw0wODA3MjMxNjAwMDBaFw0wOTA3MjMxNjAwMDBaMIHX
MQswCQYDVQQGEwJVUzEWMBQGA1UECBMNTWFzc2FjaHVzZXR0czESMBAGA1UEBxMJ
Q2FtYnJpZGdlMS4wLAYDVQQKEyVNYXNzYWNodXNldHRzIEluc3RpdHV0ZSBvZiBU
ZWNobm9sb2d5MS0wKwYDVQQLEyRTdHVkZW50IEluZm9ybWF0aW9uIFByb2Nlc3Np
bmcgQm9hcmQxHTAbBgNVBAMTFHNjcmlwdHMtY2VydC5taXQuZWR1MR4wHAYJKoZI
hvcNAQkBFg9zY3JpcHRzQG1pdC5lZHUwgZ8wDQYJKoZIhvcNAQEBBQADgY0AMIGJ
AoGBALU+IU3BiWsBjEeA/rM3J3b4UkHmoj1Ldnjl8mY8D7Gt+5ePLqK2U9O2DuJm
+bkLt8601fUcH28ifUj1bfAWzY5IedEUShQvL/jEvR2Hz32LXHetWCSwDqFt1grH
2LwvZ2XIXdjYMcJnS0r0oaVUgq/LNAgqBH+OfEy329xqil2BAgMBAAGjdTBzMAkG
A1UdEwQCMAAwEQYJYIZIAYb4QgEBBAQDAgXgMCcGA1UdJQQgMB4GCCsGAQUFBwMB
BggrBgEFBQcDBAYIKwYBBQUHAwIwCwYDVR0PBAQDAgXgMB0GA1UdDgQWBBRUEXwJ
VUQclEWponZGKywkJmpE6DANBgkqhkiG9w0BAQUFAAOBgQA4ozvC1stbNmWJxMH8
yF+1B6KFC1ki97Opl7eBMk0/F2lsb/Nk3nW/5haYiM8k8gcQ/tLoZkIQLULVgBTm
VQ6PxCjpOfHNpErFkxVFCMm2Pn5M5x/uDVORNx/d4tqX8KnOmMBdRhESZl9/EfyA
KjbYymitXD0SWzKvG63gNm3i8Q==
-----END CERTIFICATE-----
