Certificate:
    Data:
        Version: 3 (0x2)
        Serial Number: 2871 (0xb37)
        Signature Algorithm: sha1WithRSAEncryption
        Issuer: C=US, ST=Massachusetts, O=Massachusetts Institute of Technology, OU=MIT Certification Authority
        Validity
            Not Before: Jul 23 16:00:00 2008 GMT
            Not After : Jul 23 16:00:00 2009 GMT
        Subject: C=US, ST=Massachusetts, L=Cambridge, O=Massachusetts Institute of Technology, OU=Student Information Processing Board, CN=scripts.mit.edu/Email=scripts@mit.edu
        Subject Public Key Info:
            Public Key Algorithm: rsaEncryption
            RSA Public Key: (1024 bit)
                Modulus (1024 bit):
                    00:b5:3e:21:4d:c1:89:6b:01:8c:47:80:fe:b3:37:
                    27:76:f8:52:41:e6:a2:3d:4b:76:78:e5:f2:66:3c:
                    0f:b1:ad:fb:97:8f:2e:a2:b6:53:d3:b6:0e:e2:66:
                    f9:b9:0b:b7:ce:b4:d5:f5:1c:1f:6f:22:7d:48:f5:
                    6d:f0:16:cd:8e:48:79:d1:14:4a:14:2f:2f:f8:c4:
                    bd:1d:87:cf:7d:8b:5c:77:ad:58:24:b0:0e:a1:6d:
                    d6:0a:c7:d8:bc:2f:67:65:c8:5d:d8:d8:31:c2:67:
                    4b:4a:f4:a1:a5:54:82:af:cb:34:08:2a:04:7f:8e:
                    7c:4c:b7:db:dc:6a:8a:5d:81
                Exponent: 65537 (0x10001)
        X509v3 extensions:
            X509v3 Basic Constraints: 
                CA:FALSE
            Netscape Cert Type: 
                SSL Client, SSL Server, S/MIME
            X509v3 Extended Key Usage: 
                TLS Web Server Authentication, E-mail Protection, TLS Web Client Authentication
            X509v3 Key Usage: 
                Digital Signature, Non Repudiation, Key Encipherment
            X509v3 Subject Key Identifier: 
                54:11:7C:09:55:44:1C:94:45:A9:A2:76:46:2B:2C:24:26:6A:44:E8
    Signature Algorithm: sha1WithRSAEncryption
        3f:34:05:8a:a7:a1:c1:51:9b:f0:6d:c6:e4:2a:aa:fc:cd:2a:
        50:8e:36:12:74:7e:d8:9f:a7:db:63:cf:d2:19:48:01:00:aa:
        50:f8:83:5c:5b:4b:68:b8:de:a6:0a:2b:0d:f0:af:fa:d6:92:
        a5:46:73:20:e4:1c:62:d4:a3:b7:48:8d:f4:6a:88:d2:a8:e0:
        2a:38:ab:c8:df:9a:55:ec:e5:83:c7:1f:e5:63:d5:b6:d5:3d:
        30:6e:a3:6e:30:84:d1:f2:35:09:b9:31:e1:c8:f1:3d:11:4d:
        99:ad:f7:33:95:8d:d7:5c:88:6a:49:23:02:1e:7d:94:ff:a7:
        7f:bf
-----BEGIN CERTIFICATE-----
MIIDOjCCAqOgAwIBAgICCzcwDQYJKoZIhvcNAQEFBQAwezELMAkGA1UEBhMCVVMx
FjAUBgNVBAgTDU1hc3NhY2h1c2V0dHMxLjAsBgNVBAoTJU1hc3NhY2h1c2V0dHMg
SW5zdGl0dXRlIG9mIFRlY2hub2xvZ3kxJDAiBgNVBAsTG01JVCBDZXJ0aWZpY2F0
aW9uIEF1dGhvcml0eTAeFw0wODA3MjMxNjAwMDBaFw0wOTA3MjMxNjAwMDBaMIHS
MQswCQYDVQQGEwJVUzEWMBQGA1UECBMNTWFzc2FjaHVzZXR0czESMBAGA1UEBxMJ
Q2FtYnJpZGdlMS4wLAYDVQQKEyVNYXNzYWNodXNldHRzIEluc3RpdHV0ZSBvZiBU
ZWNobm9sb2d5MS0wKwYDVQQLEyRTdHVkZW50IEluZm9ybWF0aW9uIFByb2Nlc3Np
bmcgQm9hcmQxGDAWBgNVBAMTD3NjcmlwdHMubWl0LmVkdTEeMBwGCSqGSIb3DQEJ
ARYPc2NyaXB0c0BtaXQuZWR1MIGfMA0GCSqGSIb3DQEBAQUAA4GNADCBiQKBgQC1
PiFNwYlrAYxHgP6zNyd2+FJB5qI9S3Z45fJmPA+xrfuXjy6itlPTtg7iZvm5C7fO
tNX1HB9vIn1I9W3wFs2OSHnRFEoULy/4xL0dh899i1x3rVgksA6hbdYKx9i8L2dl
yF3Y2DHCZ0tK9KGlVIKvyzQIKgR/jnxMt9vcaopdgQIDAQABo3UwczAJBgNVHRME
AjAAMBEGCWCGSAGG+EIBAQQEAwIF4DAnBgNVHSUEIDAeBggrBgEFBQcDAQYIKwYB
BQUHAwQGCCsGAQUFBwMCMAsGA1UdDwQEAwIF4DAdBgNVHQ4EFgQUVBF8CVVEHJRF
qaJ2RissJCZqROgwDQYJKoZIhvcNAQEFBQADgYEAPzQFiqehwVGb8G3G5Cqq/M0q
UI42EnR+2J+n22PP0hlIAQCqUPiDXFtLaLjepgorDfCv+taSpUZzIOQcYtSjt0iN
9GqI0qjgKjiryN+aVezlg8cf5WPVttU9MG6jbjCE0fI1Cbkx4cjxPRFNma33M5WN
11yIakkjAh59lP+nf78=
-----END CERTIFICATE-----
