Certificate:
    Data:
        Version: 3 (0x2)
        Serial Number:
            bf:ae:ff:3a:cd:d8:29:65:eb:c7:3a:7a:57:81:3e:fb
        Signature Algorithm: sha1WithRSAEncryption
        Issuer: C=US, ST=Massachusetts, O=Massachusetts Institute of Technology, OU=MIT Certification Authority
        Validity
            Not Before: Jul  6 16:00:00 2009 GMT
            Not After : Jul  8 16:00:00 2010 GMT
        Subject: C=US, ST=Massachusetts, L=Cambridge, O=Massachusetts Institute of Technology, OU=Student Information Processing Board, CN=scripts-cert.mit.edu/emailAddress=scripts@mit.edu
        Subject Public Key Info:
            Public Key Algorithm: rsaEncryption
            RSA Public Key: (1024 bit)
                Modulus (1024 bit):
                    00:b5:3e:21:4d:c1:89:6b:01:8c:47:80:fe:b3:37:
                    27:76:f8:52:41:e6:a2:3d:4b:76:78:e5:f2:66:3c:
                    0f:b1:ad:fb:97:8f:2e:a2:b6:53:d3:b6:0e:e2:66:
                    f9:b9:0b:b7:ce:b4:d5:f5:1c:1f:6f:22:7d:48:f5:
                    6d:f0:16:cd:8e:48:79:d1:14:4a:14:2f:2f:f8:c4:
                    bd:1d:87:cf:7d:8b:5c:77:ad:58:24:b0:0e:a1:6d:
                    d6:0a:c7:d8:bc:2f:67:65:c8:5d:d8:d8:31:c2:67:
                    4b:4a:f4:a1:a5:54:82:af:cb:34:08:2a:04:7f:8e:
                    7c:4c:b7:db:dc:6a:8a:5d:81
                Exponent: 65537 (0x10001)
        X509v3 extensions:
            X509v3 Basic Constraints: 
                CA:FALSE
            Netscape Cert Type: 
                SSL Client, SSL Server, S/MIME
            X509v3 Extended Key Usage: 
                TLS Web Server Authentication, E-mail Protection, TLS Web Client Authentication
            X509v3 Key Usage: 
                Digital Signature, Non Repudiation, Key Encipherment
            X509v3 Subject Key Identifier: 
                54:11:7C:09:55:44:1C:94:45:A9:A2:76:46:2B:2C:24:26:6A:44:E8
            X509v3 CRL Distribution Points: 
                URI:http://ca.mit.edu/ca/mitserver.crl

    Signature Algorithm: sha1WithRSAEncryption
        2b:39:ba:b0:36:13:fc:c1:bb:f5:34:95:d4:5a:0c:08:2a:db:
        62:a0:7b:ea:9c:3b:a2:ed:21:22:6d:49:cb:78:b9:fd:7a:de:
        aa:3e:19:d1:22:0a:09:f1:c8:9b:20:80:af:0c:9a:76:c6:cf:
        8e:d3:1c:dd:e2:32:c2:da:9f:20:62:23:17:68:d6:da:0d:6d:
        88:18:3e:4e:cb:2d:74:b0:af:23:38:ba:14:b5:1a:e7:8e:bd:
        21:be:39:07:30:76:8e:71:7c:c9:f0:ad:f0:d5:d7:69:2f:7a:
        ab:35:d8:4f:17:2b:ed:a7:fc:b4:1c:e2:fc:9e:00:af:51:2c:
        46:28
-----BEGIN CERTIFICATE-----
MIIDhTCCAu6gAwIBAgIRAL+u/zrN2Cll68c6eleBPvswDQYJKoZIhvcNAQEFBQAw
ezELMAkGA1UEBhMCVVMxFjAUBgNVBAgTDU1hc3NhY2h1c2V0dHMxLjAsBgNVBAoT
JU1hc3NhY2h1c2V0dHMgSW5zdGl0dXRlIG9mIFRlY2hub2xvZ3kxJDAiBgNVBAsT
G01JVCBDZXJ0aWZpY2F0aW9uIEF1dGhvcml0eTAeFw0wOTA3MDYxNjAwMDBaFw0x
MDA3MDgxNjAwMDBaMIHXMQswCQYDVQQGEwJVUzEWMBQGA1UECBMNTWFzc2FjaHVz
ZXR0czESMBAGA1UEBxMJQ2FtYnJpZGdlMS4wLAYDVQQKEyVNYXNzYWNodXNldHRz
IEluc3RpdHV0ZSBvZiBUZWNobm9sb2d5MS0wKwYDVQQLEyRTdHVkZW50IEluZm9y
bWF0aW9uIFByb2Nlc3NpbmcgQm9hcmQxHTAbBgNVBAMTFHNjcmlwdHMtY2VydC5t
aXQuZWR1MR4wHAYJKoZIhvcNAQkBFg9zY3JpcHRzQG1pdC5lZHUwgZ8wDQYJKoZI
hvcNAQEBBQADgY0AMIGJAoGBALU+IU3BiWsBjEeA/rM3J3b4UkHmoj1Ldnjl8mY8
D7Gt+5ePLqK2U9O2DuJm+bkLt8601fUcH28ifUj1bfAWzY5IedEUShQvL/jEvR2H
z32LXHetWCSwDqFt1grH2LwvZ2XIXdjYMcJnS0r0oaVUgq/LNAgqBH+OfEy329xq
il2BAgMBAAGjgaswgagwCQYDVR0TBAIwADARBglghkgBhvhCAQEEBAMCBeAwJwYD
VR0lBCAwHgYIKwYBBQUHAwEGCCsGAQUFBwMEBggrBgEFBQcDAjALBgNVHQ8EBAMC
BeAwHQYDVR0OBBYEFFQRfAlVRByURamidkYrLCQmakToMDMGA1UdHwQsMCowKKAm
oCSGImh0dHA6Ly9jYS5taXQuZWR1L2NhL21pdHNlcnZlci5jcmwwDQYJKoZIhvcN
AQEFBQADgYEAKzm6sDYT/MG79TSV1FoMCCrbYqB76pw7ou0hIm1Jy3i5/Xreqj4Z
0SIKCfHImyCArwyadsbPjtMc3eIywtqfIGIjF2jW2g1tiBg+TsstdLCvIzi6FLUa
5469Ib45BzB2jnF8yfCt8NXXaS96qzXYTxcr7af8tBzi/J4Ar1EsRig=
-----END CERTIFICATE-----
