From mitcert@MIT.EDU Mon Oct  5 11:20:38 2009
Date: Mon, 5 Oct 2009 10:57:50 -0400 (EDT)
From: mitcert@MIT.EDU
To: scripts-root@mit.edu
Subject: CSR for scripts vhost signup.mit.edu  [help.mit.edu #1032615]

Certificate:
    Data:
        Version: 3 (0x2)
        Serial Number:
            b5:26:22:8c:d2:3e:86:36:e9:e2:50:a8:05:f1:2d:3b
        Signature Algorithm: sha1WithRSAEncryption
        Issuer: C=US, ST=Massachusetts, O=Massachusetts Institute of Technology, OU=MIT Certification Authority
        Validity
            Not Before: Oct  3 16:00:00 2009 GMT
            Not After : Oct  5 16:00:00 2010 GMT
        Subject: C=US, ST=Massachusetts, L=Cambridge, O=Massachusetts Institute of Technology, OU=Student Information Processing Board, CN=signup.mit.edu/emailAddress=scripts@mit.edu
        Subject Public Key Info:
            Public Key Algorithm: rsaEncryption
            RSA Public Key: (1024 bit)
                Modulus (1024 bit):
                    00:b5:3e:21:4d:c1:89:6b:01:8c:47:80:fe:b3:37:
                    27:76:f8:52:41:e6:a2:3d:4b:76:78:e5:f2:66:3c:
                    0f:b1:ad:fb:97:8f:2e:a2:b6:53:d3:b6:0e:e2:66:
                    f9:b9:0b:b7:ce:b4:d5:f5:1c:1f:6f:22:7d:48:f5:
                    6d:f0:16:cd:8e:48:79:d1:14:4a:14:2f:2f:f8:c4:
                    bd:1d:87:cf:7d:8b:5c:77:ad:58:24:b0:0e:a1:6d:
                    d6:0a:c7:d8:bc:2f:67:65:c8:5d:d8:d8:31:c2:67:
                    4b:4a:f4:a1:a5:54:82:af:cb:34:08:2a:04:7f:8e:
                    7c:4c:b7:db:dc:6a:8a:5d:81
                Exponent: 65537 (0x10001)
        X509v3 extensions:
            X509v3 Basic Constraints: 
                CA:FALSE
            Netscape Cert Type: 
                SSL Client, SSL Server, S/MIME
            X509v3 Extended Key Usage: 
                TLS Web Server Authentication, E-mail Protection, TLS Web Client Authentication
            X509v3 Key Usage: 
                Digital Signature, Non Repudiation, Key Encipherment
            X509v3 Subject Key Identifier: 
                54:11:7C:09:55:44:1C:94:45:A9:A2:76:46:2B:2C:24:26:6A:44:E8
            X509v3 CRL Distribution Points: 
                URI:http://ca.mit.edu/ca/mitserver.crl

    Signature Algorithm: sha1WithRSAEncryption
        7a:ed:0c:a3:16:f0:53:5d:28:53:1e:eb:33:54:fd:b9:e6:87:
        cd:c4:8b:cb:0c:e6:aa:c9:83:7b:1b:bc:da:6c:d8:df:f8:1f:
        16:e2:bd:50:6a:d2:99:43:a6:6e:5d:ae:45:c8:b5:80:21:80:
        85:9e:5d:b3:c0:77:8e:34:31:01:90:c7:67:9b:f7:6f:12:0a:
        61:27:3f:ce:88:03:89:9e:7b:77:26:2d:c0:ec:64:01:c1:ee:
        fa:7f:8d:48:1d:82:22:ff:92:23:8d:ee:49:20:c3:00:0f:9e:
        b6:65:96:cd:fb:9e:9f:b4:63:d8:2d:b7:36:eb:ee:61:1d:df:
        53:4a
-----BEGIN CERTIFICATE-----
MIIDfzCCAuigAwIBAgIRALUmIozSPoY26eJQqAXxLTswDQYJKoZIhvcNAQEFBQAw
ezELMAkGA1UEBhMCVVMxFjAUBgNVBAgTDU1hc3NhY2h1c2V0dHMxLjAsBgNVBAoT
JU1hc3NhY2h1c2V0dHMgSW5zdGl0dXRlIG9mIFRlY2hub2xvZ3kxJDAiBgNVBAsT
G01JVCBDZXJ0aWZpY2F0aW9uIEF1dGhvcml0eTAeFw0wOTEwMDMxNjAwMDBaFw0x
MDEwMDUxNjAwMDBaMIHRMQswCQYDVQQGEwJVUzEWMBQGA1UECBMNTWFzc2FjaHVz
ZXR0czESMBAGA1UEBxMJQ2FtYnJpZGdlMS4wLAYDVQQKEyVNYXNzYWNodXNldHRz
IEluc3RpdHV0ZSBvZiBUZWNobm9sb2d5MS0wKwYDVQQLEyRTdHVkZW50IEluZm9y
bWF0aW9uIFByb2Nlc3NpbmcgQm9hcmQxFzAVBgNVBAMTDnNpZ251cC5taXQuZWR1
MR4wHAYJKoZIhvcNAQkBFg9zY3JpcHRzQG1pdC5lZHUwgZ8wDQYJKoZIhvcNAQEB
BQADgY0AMIGJAoGBALU+IU3BiWsBjEeA/rM3J3b4UkHmoj1Ldnjl8mY8D7Gt+5eP
LqK2U9O2DuJm+bkLt8601fUcH28ifUj1bfAWzY5IedEUShQvL/jEvR2Hz32LXHet
WCSwDqFt1grH2LwvZ2XIXdjYMcJnS0r0oaVUgq/LNAgqBH+OfEy329xqil2BAgMB
AAGjgaswgagwCQYDVR0TBAIwADARBglghkgBhvhCAQEEBAMCBeAwJwYDVR0lBCAw
HgYIKwYBBQUHAwEGCCsGAQUFBwMEBggrBgEFBQcDAjALBgNVHQ8EBAMCBeAwHQYD
VR0OBBYEFFQRfAlVRByURamidkYrLCQmakToMDMGA1UdHwQsMCowKKAmoCSGImh0
dHA6Ly9jYS5taXQuZWR1L2NhL21pdHNlcnZlci5jcmwwDQYJKoZIhvcNAQEFBQAD
gYEAeu0MoxbwU10oUx7rM1T9ueaHzcSLywzmqsmDexu82mzY3/gfFuK9UGrSmUOm
bl2uRci1gCGAhZ5ds8B3jjQxAZDHZ5v3bxIKYSc/zogDiZ57dyYtwOxkAcHu+n+N
SB2CIv+SI43uSSDDAA+etmWWzfuen7Rj2C23NuvuYR3fU0o=
-----END CERTIFICATE-----

