From mitcert@MIT.EDU Thu Oct 28 14:41:31 2010
Date: Thu, 28 Oct 2010 14:41:30 -0400 (EDT)
From: mitcert@MIT.EDU
To: geofft@mit.edu
Subject: CSR for sipb.mit.edu  [help.mit.edu #1385007]

Certificate:
    Data:
        Version: 3 (0x2)
        Serial Number:
            64:1d:ea:17:1b:aa:8d:e0:4e:ee:8b:71:79:47:e0:ae
        Signature Algorithm: sha1WithRSAEncryption
        Issuer: C=US, ST=Massachusetts, O=Massachusetts Institute of Technology, OU=MIT Certification Authority
        Validity
            Not Before: Oct 27 16:00:00 2010 GMT
            Not After : Oct 27 16:00:00 2011 GMT
        Subject: C=US, ST=Massachusetts, L=Cambridge, O=Massachusetts Institute of Technology, OU=scripts.mit.edu web hosting service, CN=sipb.mit.edu/emailAddress=scripts@mit.edu
        Subject Public Key Info:
            Public Key Algorithm: rsaEncryption
            RSA Public Key: (1024 bit)
                Modulus (1024 bit):
                    00:b5:3e:21:4d:c1:89:6b:01:8c:47:80:fe:b3:37:
                    27:76:f8:52:41:e6:a2:3d:4b:76:78:e5:f2:66:3c:
                    0f:b1:ad:fb:97:8f:2e:a2:b6:53:d3:b6:0e:e2:66:
                    f9:b9:0b:b7:ce:b4:d5:f5:1c:1f:6f:22:7d:48:f5:
                    6d:f0:16:cd:8e:48:79:d1:14:4a:14:2f:2f:f8:c4:
                    bd:1d:87:cf:7d:8b:5c:77:ad:58:24:b0:0e:a1:6d:
                    d6:0a:c7:d8:bc:2f:67:65:c8:5d:d8:d8:31:c2:67:
                    4b:4a:f4:a1:a5:54:82:af:cb:34:08:2a:04:7f:8e:
                    7c:4c:b7:db:dc:6a:8a:5d:81
                Exponent: 65537 (0x10001)
        X509v3 extensions:
            X509v3 Basic Constraints: 
                CA:FALSE
            Netscape Cert Type: 
                SSL Client, SSL Server, S/MIME
            X509v3 Extended Key Usage: 
                TLS Web Server Authentication, E-mail Protection, TLS Web Client Authentication
            X509v3 Key Usage: 
                Digital Signature, Non Repudiation, Key Encipherment
            X509v3 Subject Key Identifier: 
                54:11:7C:09:55:44:1C:94:45:A9:A2:76:46:2B:2C:24:26:6A:44:E8
            X509v3 CRL Distribution Points: 
                URI:http://ca.mit.edu/ca/mitserver.crl

    Signature Algorithm: sha1WithRSAEncryption
        38:b2:96:5f:ed:dd:ce:65:0c:dc:f0:b6:ef:2e:3e:5c:ca:75:
        47:f6:ff:dc:67:25:89:31:6b:d7:a3:c7:a3:48:ca:c6:64:45:
        57:55:7b:f7:65:70:1e:8c:06:d0:31:7b:85:92:bb:54:c2:4a:
        d0:b7:ce:8e:6c:f3:54:1d:60:5c:78:89:d8:10:d9:8e:33:f1:
        f9:5e:da:82:7c:3e:0b:45:a1:1d:b2:c7:12:6a:e7:3b:24:24:
        68:ed:7d:f9:f8:1b:29:e7:87:1e:32:d3:54:b3:cf:bd:26:58:
        7c:c6:f1:9a:17:3e:c6:1d:ac:f4:4d:b6:aa:b2:bb:4c:a7:74:
        0b:e8
-----BEGIN CERTIFICATE-----
MIIDezCCAuSgAwIBAgIQZB3qFxuqjeBO7otxeUfgrjANBgkqhkiG9w0BAQUFADB7
MQswCQYDVQQGEwJVUzEWMBQGA1UECBMNTWFzc2FjaHVzZXR0czEuMCwGA1UEChMl
TWFzc2FjaHVzZXR0cyBJbnN0aXR1dGUgb2YgVGVjaG5vbG9neTEkMCIGA1UECxMb
TUlUIENlcnRpZmljYXRpb24gQXV0aG9yaXR5MB4XDTEwMTAyNzE2MDAwMFoXDTEx
MTAyNzE2MDAwMFowgc4xCzAJBgNVBAYTAlVTMRYwFAYDVQQIEw1NYXNzYWNodXNl
dHRzMRIwEAYDVQQHEwlDYW1icmlkZ2UxLjAsBgNVBAoTJU1hc3NhY2h1c2V0dHMg
SW5zdGl0dXRlIG9mIFRlY2hub2xvZ3kxLDAqBgNVBAsTI3NjcmlwdHMubWl0LmVk
dSB3ZWIgaG9zdGluZyBzZXJ2aWNlMRUwEwYDVQQDEwxzaXBiLm1pdC5lZHUxHjAc
BgkqhkiG9w0BCQEWD3NjcmlwdHNAbWl0LmVkdTCBnzANBgkqhkiG9w0BAQEFAAOB
jQAwgYkCgYEAtT4hTcGJawGMR4D+szcndvhSQeaiPUt2eOXyZjwPsa37l48uorZT
07YO4mb5uQu3zrTV9RwfbyJ9SPVt8BbNjkh50RRKFC8v+MS9HYfPfYtcd61YJLAO
oW3WCsfYvC9nZchd2NgxwmdLSvShpVSCr8s0CCoEf458TLfb3GqKXYECAwEAAaOB
qzCBqDAJBgNVHRMEAjAAMBEGCWCGSAGG+EIBAQQEAwIF4DAnBgNVHSUEIDAeBggr
BgEFBQcDAQYIKwYBBQUHAwQGCCsGAQUFBwMCMAsGA1UdDwQEAwIF4DAdBgNVHQ4E
FgQUVBF8CVVEHJRFqaJ2RissJCZqROgwMwYDVR0fBCwwKjAooCagJIYiaHR0cDov
L2NhLm1pdC5lZHUvY2EvbWl0c2VydmVyLmNybDANBgkqhkiG9w0BAQUFAAOBgQA4
spZf7d3OZQzc8LbvLj5cynVH9v/cZyWJMWvXo8ejSMrGZEVXVXv3ZXAejAbQMXuF
krtUwkrQt86ObPNUHWBceInYENmOM/H5XtqCfD4LRaEdsscSauc7JCRo7X35+Bsp
54ceMtNUs8+9Jlh8xvGaFz7GHaz0TbaqsrtMp3QL6A==
-----END CERTIFICATE-----

