From mitcert@MIT.EDU Sun Nov  8 17:29:00 2009
Date: Sun, 8 Nov 2009 17:28:12 -0500 (EST)
From: mitcert@MIT.EDU
To: scripts-root@mit.edu
Subject: certificate renewal request for scripts vhost sipb.mit.edu  [help.mit.edu #1068236]

Certificate:
    Data:
        Version: 3 (0x2)
        Serial Number:
            6f:84:03:d1:3f:56:a0:3f:d8:6b:66:f8:a1:48:ef:a0
        Signature Algorithm: sha1WithRSAEncryption
        Issuer: C=US, ST=Massachusetts, O=Massachusetts Institute of Technology, OU=MIT Certification Authority
        Validity
            Not Before: Nov  7 17:00:00 2009 GMT
            Not After : Nov  8 17:00:00 2010 GMT
        Subject: C=US, ST=Massachusetts, L=Cambridge, O=Massachusetts Institute of Technology, OU=scripts.mit.edu web hosting service, CN=sipb.mit.edu/emailAddress=scripts@mit.edu
        Subject Public Key Info:
            Public Key Algorithm: rsaEncryption
            RSA Public Key: (1024 bit)
                Modulus (1024 bit):
                    00:b5:3e:21:4d:c1:89:6b:01:8c:47:80:fe:b3:37:
                    27:76:f8:52:41:e6:a2:3d:4b:76:78:e5:f2:66:3c:
                    0f:b1:ad:fb:97:8f:2e:a2:b6:53:d3:b6:0e:e2:66:
                    f9:b9:0b:b7:ce:b4:d5:f5:1c:1f:6f:22:7d:48:f5:
                    6d:f0:16:cd:8e:48:79:d1:14:4a:14:2f:2f:f8:c4:
                    bd:1d:87:cf:7d:8b:5c:77:ad:58:24:b0:0e:a1:6d:
                    d6:0a:c7:d8:bc:2f:67:65:c8:5d:d8:d8:31:c2:67:
                    4b:4a:f4:a1:a5:54:82:af:cb:34:08:2a:04:7f:8e:
                    7c:4c:b7:db:dc:6a:8a:5d:81
                Exponent: 65537 (0x10001)
        X509v3 extensions:
            X509v3 Basic Constraints: 
                CA:FALSE
            Netscape Cert Type: 
                SSL Client, SSL Server, S/MIME
            X509v3 Extended Key Usage: 
                TLS Web Server Authentication, E-mail Protection, TLS Web Client Authentication
            X509v3 Key Usage: 
                Digital Signature, Non Repudiation, Key Encipherment
            X509v3 Subject Key Identifier: 
                54:11:7C:09:55:44:1C:94:45:A9:A2:76:46:2B:2C:24:26:6A:44:E8
            X509v3 CRL Distribution Points: 
                URI:http://ca.mit.edu/ca/mitserver.crl

    Signature Algorithm: sha1WithRSAEncryption
        1e:92:17:51:77:cd:79:94:95:0a:38:10:72:ab:5e:f2:7a:91:
        57:80:56:70:29:ee:32:b2:69:33:8e:11:86:64:26:81:b2:53:
        20:08:dc:88:71:78:e5:8e:6a:b5:ee:ab:99:8d:00:31:db:1f:
        aa:54:72:3e:25:78:27:0c:3b:71:42:87:8b:ed:38:79:e7:85:
        69:75:37:d5:31:89:fa:d3:7a:b9:8c:36:6a:5a:2b:ef:58:62:
        61:5d:d3:09:71:f1:6b:44:4f:a3:cb:bf:2b:d8:c3:d6:d8:c0:
        87:ff:34:1d:e3:00:c7:fd:6c:77:f3:20:16:5a:ab:b2:ad:55:
        7d:0a
-----BEGIN CERTIFICATE-----
MIIDezCCAuSgAwIBAgIQb4QD0T9WoD/Ya2b4oUjvoDANBgkqhkiG9w0BAQUFADB7
MQswCQYDVQQGEwJVUzEWMBQGA1UECBMNTWFzc2FjaHVzZXR0czEuMCwGA1UEChMl
TWFzc2FjaHVzZXR0cyBJbnN0aXR1dGUgb2YgVGVjaG5vbG9neTEkMCIGA1UECxMb
TUlUIENlcnRpZmljYXRpb24gQXV0aG9yaXR5MB4XDTA5MTEwNzE3MDAwMFoXDTEw
MTEwODE3MDAwMFowgc4xCzAJBgNVBAYTAlVTMRYwFAYDVQQIEw1NYXNzYWNodXNl
dHRzMRIwEAYDVQQHEwlDYW1icmlkZ2UxLjAsBgNVBAoTJU1hc3NhY2h1c2V0dHMg
SW5zdGl0dXRlIG9mIFRlY2hub2xvZ3kxLDAqBgNVBAsTI3NjcmlwdHMubWl0LmVk
dSB3ZWIgaG9zdGluZyBzZXJ2aWNlMRUwEwYDVQQDEwxzaXBiLm1pdC5lZHUxHjAc
BgkqhkiG9w0BCQEWD3NjcmlwdHNAbWl0LmVkdTCBnzANBgkqhkiG9w0BAQEFAAOB
jQAwgYkCgYEAtT4hTcGJawGMR4D+szcndvhSQeaiPUt2eOXyZjwPsa37l48uorZT
07YO4mb5uQu3zrTV9RwfbyJ9SPVt8BbNjkh50RRKFC8v+MS9HYfPfYtcd61YJLAO
oW3WCsfYvC9nZchd2NgxwmdLSvShpVSCr8s0CCoEf458TLfb3GqKXYECAwEAAaOB
qzCBqDAJBgNVHRMEAjAAMBEGCWCGSAGG+EIBAQQEAwIF4DAnBgNVHSUEIDAeBggr
BgEFBQcDAQYIKwYBBQUHAwQGCCsGAQUFBwMCMAsGA1UdDwQEAwIF4DAdBgNVHQ4E
FgQUVBF8CVVEHJRFqaJ2RissJCZqROgwMwYDVR0fBCwwKjAooCagJIYiaHR0cDov
L2NhLm1pdC5lZHUvY2EvbWl0c2VydmVyLmNybDANBgkqhkiG9w0BAQUFAAOBgQAe
khdRd815lJUKOBByq17yepFXgFZwKe4ysmkzjhGGZCaBslMgCNyIcXjljmq17quZ
jQAx2x+qVHI+JXgnDDtxQoeL7Th554VpdTfVMYn603q5jDZqWivvWGJhXdMJcfFr
RE+jy78r2MPW2MCH/zQd4wDH/Wx38yAWWquyrVV9Cg==
-----END CERTIFICATE-----

