
From mitcert@MIT.EDU Wed Nov 19 12:27:39 2008
Date: Wed, 19 Nov 2008 12:10:45 -0500 (EST)
From: mitcert@MIT.EDU
To: jhawk@mit.edu
Subject: [geofft@MIT.EDU: CSR for sipb.mit.edu for mitcert]  [help.mit.edu
    #755313]

Here you go.

Certificate:
    Data:
        Version: 3 (0x2)
        Serial Number: 3129 (0xc39)
        Signature Algorithm: sha1WithRSAEncryption
        Issuer: C=US, ST=Massachusetts, O=Massachusetts Institute of Technology,
OU=MIT Certification Authority
        Validity
            Not Before: Nov 17 17:00:00 2008 GMT
            Not After : Nov 17 17:00:00 2009 GMT
        Subject: C=US, ST=Massachusetts, L=Cambridge, O=Massachusetts Institute
of Technology, OU=Student Information Processing Board,
CN=sipb.mit.edu/Email=scripts@mit.edu
        Subject Public Key Info:
            Public Key Algorithm: rsaEncryption
            RSA Public Key: (1024 bit)
                Modulus (1024 bit):
                    00:b5:3e:21:4d:c1:89:6b:01:8c:47:80:fe:b3:37:
                    27:76:f8:52:41:e6:a2:3d:4b:76:78:e5:f2:66:3c:
                    0f:b1:ad:fb:97:8f:2e:a2:b6:53:d3:b6:0e:e2:66:
                    f9:b9:0b:b7:ce:b4:d5:f5:1c:1f:6f:22:7d:48:f5:
                    6d:f0:16:cd:8e:48:79:d1:14:4a:14:2f:2f:f8:c4:
                    bd:1d:87:cf:7d:8b:5c:77:ad:58:24:b0:0e:a1:6d:
                    d6:0a:c7:d8:bc:2f:67:65:c8:5d:d8:d8:31:c2:67:
                    4b:4a:f4:a1:a5:54:82:af:cb:34:08:2a:04:7f:8e:
                    7c:4c:b7:db:dc:6a:8a:5d:81
                Exponent: 65537 (0x10001)
        X509v3 extensions:
            X509v3 Basic Constraints: 
                CA:FALSE
            Netscape Cert Type: 
                SSL Client, SSL Server, S/MIME
            X509v3 Extended Key Usage: 
                TLS Web Server Authentication, E-mail Protection, TLS Web Client
Authentication
            X509v3 Key Usage: 
                Digital Signature, Non Repudiation, Key Encipherment
            X509v3 Subject Key Identifier: 
                54:11:7C:09:55:44:1C:94:45:A9:A2:76:46:2B:2C:24:26:6A:44:E8
    Signature Algorithm: sha1WithRSAEncryption
        75:14:c0:e5:a0:ab:aa:5c:dd:4d:eb:0a:9c:06:eb:f4:4b:c9:
        36:4d:71:2d:ac:03:e7:cd:b4:dd:e0:67:c8:10:cf:59:05:fc:
        08:f6:a5:0c:59:e9:f8:eb:36:a9:3b:51:91:fa:fd:fd:10:34:
        ad:73:c1:bb:cf:53:3d:63:44:04:9b:8d:37:aa:64:aa:e2:6e:
        ee:1c:21:c1:4b:b9:f1:a3:7e:22:54:8b:72:a4:de:1d:78:4d:
        6e:03:b6:33:33:39:d8:9f:aa:06:f0:fb:68:38:d0:74:e6:34:
        34:05:be:51:a9:3f:b2:f1:15:9b:99:f2:34:ce:7a:46:28:3d:
        58:58
-----BEGIN CERTIFICATE-----
MIIDNzCCAqCgAwIBAgICDDkwDQYJKoZIhvcNAQEFBQAwezELMAkGA1UEBhMCVVMx
FjAUBgNVBAgTDU1hc3NhY2h1c2V0dHMxLjAsBgNVBAoTJU1hc3NhY2h1c2V0dHMg
SW5zdGl0dXRlIG9mIFRlY2hub2xvZ3kxJDAiBgNVBAsTG01JVCBDZXJ0aWZpY2F0
aW9uIEF1dGhvcml0eTAeFw0wODExMTcxNzAwMDBaFw0wOTExMTcxNzAwMDBaMIHP
MQswCQYDVQQGEwJVUzEWMBQGA1UECBMNTWFzc2FjaHVzZXR0czESMBAGA1UEBxMJ
Q2FtYnJpZGdlMS4wLAYDVQQKEyVNYXNzYWNodXNldHRzIEluc3RpdHV0ZSBvZiBU
ZWNobm9sb2d5MS0wKwYDVQQLEyRTdHVkZW50IEluZm9ybWF0aW9uIFByb2Nlc3Np
bmcgQm9hcmQxFTATBgNVBAMTDHNpcGIubWl0LmVkdTEeMBwGCSqGSIb3DQEJARYP
c2NyaXB0c0BtaXQuZWR1MIGfMA0GCSqGSIb3DQEBAQUAA4GNADCBiQKBgQC1PiFN
wYlrAYxHgP6zNyd2+FJB5qI9S3Z45fJmPA+xrfuXjy6itlPTtg7iZvm5C7fOtNX1
HB9vIn1I9W3wFs2OSHnRFEoULy/4xL0dh899i1x3rVgksA6hbdYKx9i8L2dlyF3Y
2DHCZ0tK9KGlVIKvyzQIKgR/jnxMt9vcaopdgQIDAQABo3UwczAJBgNVHRMEAjAA
MBEGCWCGSAGG+EIBAQQEAwIF4DAnBgNVHSUEIDAeBggrBgEFBQcDAQYIKwYBBQUH
AwQGCCsGAQUFBwMCMAsGA1UdDwQEAwIF4DAdBgNVHQ4EFgQUVBF8CVVEHJRFqaJ2
RissJCZqROgwDQYJKoZIhvcNAQEFBQADgYEAdRTA5aCrqlzdTesKnAbr9EvJNk1x
LawD58203eBnyBDPWQX8CPalDFnp+Os2qTtRkfr9/RA0rXPBu89TPWNEBJuNN6pk
quJu7hwhwUu58aN+IlSLcqTeHXhNbgO2MzM52J+qBvD7aDjQdOY0NAW+Uak/svEV
m5nyNM56Rig9WFg=
-----END CERTIFICATE-----

