Certificate:
    Data:
        Version: 3 (0x2)
        Serial Number: 2870 (0xb36)
        Signature Algorithm: sha1WithRSAEncryption
        Issuer: C=US, ST=Massachusetts, O=Massachusetts Institute of Technology, OU=MIT Certification Authority
        Validity
            Not Before: Jul 23 16:00:00 2008 GMT
            Not After : Jul 23 16:00:00 2009 GMT
        Subject: C=US, ST=Massachusetts, L=Cambridge, O=Massachusetts Institute of Technology, OU=Student Information Processing Board, CN=*.scripts.mit.edu/Email=scripts@mit.edu
        Subject Public Key Info:
            Public Key Algorithm: rsaEncryption
            RSA Public Key: (1024 bit)
                Modulus (1024 bit):
                    00:b5:3e:21:4d:c1:89:6b:01:8c:47:80:fe:b3:37:
                    27:76:f8:52:41:e6:a2:3d:4b:76:78:e5:f2:66:3c:
                    0f:b1:ad:fb:97:8f:2e:a2:b6:53:d3:b6:0e:e2:66:
                    f9:b9:0b:b7:ce:b4:d5:f5:1c:1f:6f:22:7d:48:f5:
                    6d:f0:16:cd:8e:48:79:d1:14:4a:14:2f:2f:f8:c4:
                    bd:1d:87:cf:7d:8b:5c:77:ad:58:24:b0:0e:a1:6d:
                    d6:0a:c7:d8:bc:2f:67:65:c8:5d:d8:d8:31:c2:67:
                    4b:4a:f4:a1:a5:54:82:af:cb:34:08:2a:04:7f:8e:
                    7c:4c:b7:db:dc:6a:8a:5d:81
                Exponent: 65537 (0x10001)
        X509v3 extensions:
            X509v3 Basic Constraints: 
                CA:FALSE
            Netscape Cert Type: 
                SSL Client, SSL Server, S/MIME
            X509v3 Extended Key Usage: 
                TLS Web Server Authentication, E-mail Protection, TLS Web Client Authentication
            X509v3 Key Usage: 
                Digital Signature, Non Repudiation, Key Encipherment
            X509v3 Subject Key Identifier: 
                54:11:7C:09:55:44:1C:94:45:A9:A2:76:46:2B:2C:24:26:6A:44:E8
    Signature Algorithm: sha1WithRSAEncryption
        2a:6e:b7:99:2a:13:93:a1:35:42:e2:fd:a9:30:3c:63:a2:e0:
        c0:87:b0:8c:1a:60:9e:12:db:be:e7:6d:01:9a:1b:d2:80:fd:
        fa:49:12:2b:7e:48:cf:00:0d:d6:f8:aa:d2:2a:0d:cf:86:01:
        4c:bd:33:bf:ca:ee:b5:4e:aa:fe:4b:c3:6d:e5:2a:ad:d8:2e:
        8a:87:e3:f0:3e:11:c8:fa:0e:bf:0f:6e:c3:7a:25:17:e5:96:
        33:7a:e6:fb:5b:03:b0:b3:7d:75:31:e7:ab:59:3a:0e:f9:11:
        44:0a:23:1a:3e:1c:a8:06:5c:f7:e7:7d:0b:0c:f4:53:02:e9:
        51:8d
-----BEGIN CERTIFICATE-----
MIIDPDCCAqWgAwIBAgICCzYwDQYJKoZIhvcNAQEFBQAwezELMAkGA1UEBhMCVVMx
FjAUBgNVBAgTDU1hc3NhY2h1c2V0dHMxLjAsBgNVBAoTJU1hc3NhY2h1c2V0dHMg
SW5zdGl0dXRlIG9mIFRlY2hub2xvZ3kxJDAiBgNVBAsTG01JVCBDZXJ0aWZpY2F0
aW9uIEF1dGhvcml0eTAeFw0wODA3MjMxNjAwMDBaFw0wOTA3MjMxNjAwMDBaMIHU
MQswCQYDVQQGEwJVUzEWMBQGA1UECBMNTWFzc2FjaHVzZXR0czESMBAGA1UEBxMJ
Q2FtYnJpZGdlMS4wLAYDVQQKEyVNYXNzYWNodXNldHRzIEluc3RpdHV0ZSBvZiBU
ZWNobm9sb2d5MS0wKwYDVQQLEyRTdHVkZW50IEluZm9ybWF0aW9uIFByb2Nlc3Np
bmcgQm9hcmQxGjAYBgNVBAMTESouc2NyaXB0cy5taXQuZWR1MR4wHAYJKoZIhvcN
AQkBFg9zY3JpcHRzQG1pdC5lZHUwgZ8wDQYJKoZIhvcNAQEBBQADgY0AMIGJAoGB
ALU+IU3BiWsBjEeA/rM3J3b4UkHmoj1Ldnjl8mY8D7Gt+5ePLqK2U9O2DuJm+bkL
t8601fUcH28ifUj1bfAWzY5IedEUShQvL/jEvR2Hz32LXHetWCSwDqFt1grH2Lwv
Z2XIXdjYMcJnS0r0oaVUgq/LNAgqBH+OfEy329xqil2BAgMBAAGjdTBzMAkGA1Ud
EwQCMAAwEQYJYIZIAYb4QgEBBAQDAgXgMCcGA1UdJQQgMB4GCCsGAQUFBwMBBggr
BgEFBQcDBAYIKwYBBQUHAwIwCwYDVR0PBAQDAgXgMB0GA1UdDgQWBBRUEXwJVUQc
lEWponZGKywkJmpE6DANBgkqhkiG9w0BAQUFAAOBgQAqbreZKhOToTVC4v2pMDxj
ouDAh7CMGmCeEtu+520BmhvSgP36SRIrfkjPAA3W+KrSKg3PhgFMvTO/yu61Tqr+
S8Nt5Sqt2C6Kh+PwPhHI+g6/D27DeiUX5ZYzeub7WwOws311MeerWToO+RFECiMa
PhyoBlz3530LDPRTAulRjQ==
-----END CERTIFICATE-----
