Certificate:
    Data:
        Version: 3 (0x2)
        Serial Number: 744584 (0xb5c88)
        Signature Algorithm: sha1WithRSAEncryption
        Issuer: C=US, O=Equifax, OU=Equifax Secure Certificate Authority
        Validity
            Not Before: Jun  4 09:13:16 2009 GMT
            Not After : Jun  5 13:13:22 2014 GMT
        Subject: C=US, ST=Massachusetts, L=Cambridge, O=Massachusetts Institute of Technology, OU=Student Information Processing Board, CN=*.scripts.mit.edu
        Subject Public Key Info:
            Public Key Algorithm: rsaEncryption
            RSA Public Key: (1024 bit)
                Modulus (1024 bit):
                    00:b5:3e:21:4d:c1:89:6b:01:8c:47:80:fe:b3:37:
                    27:76:f8:52:41:e6:a2:3d:4b:76:78:e5:f2:66:3c:
                    0f:b1:ad:fb:97:8f:2e:a2:b6:53:d3:b6:0e:e2:66:
                    f9:b9:0b:b7:ce:b4:d5:f5:1c:1f:6f:22:7d:48:f5:
                    6d:f0:16:cd:8e:48:79:d1:14:4a:14:2f:2f:f8:c4:
                    bd:1d:87:cf:7d:8b:5c:77:ad:58:24:b0:0e:a1:6d:
                    d6:0a:c7:d8:bc:2f:67:65:c8:5d:d8:d8:31:c2:67:
                    4b:4a:f4:a1:a5:54:82:af:cb:34:08:2a:04:7f:8e:
                    7c:4c:b7:db:dc:6a:8a:5d:81
                Exponent: 65537 (0x10001)
        X509v3 extensions:
            X509v3 Key Usage: critical
                Digital Signature, Non Repudiation, Key Encipherment, Data Encipherment
            X509v3 Subject Key Identifier: 
                54:11:7C:09:55:44:1C:94:45:A9:A2:76:46:2B:2C:24:26:6A:44:E8
            X509v3 CRL Distribution Points: 
                URI:http://crl.geotrust.com/crls/secureca.crl

            X509v3 Authority Key Identifier: 
                keyid:48:E6:68:F9:2B:D2:B2:95:D7:47:D8:23:20:10:4F:33:98:90:9F:D4

            X509v3 Extended Key Usage: 
                TLS Web Server Authentication, TLS Web Client Authentication
    Signature Algorithm: sha1WithRSAEncryption
        2c:25:90:82:a2:82:e8:03:58:b4:38:11:bc:c0:b5:f0:44:ee:
        b3:d9:5f:90:ab:b3:f6:24:fa:92:6b:9c:3a:7d:5d:89:f4:a2:
        3c:2f:cb:85:b2:fe:b6:92:0f:1b:94:65:2d:d6:70:f8:9f:77:
        9c:b3:20:fa:16:91:9d:e1:b7:64:07:27:42:8b:be:e2:f3:d9:
        78:71:42:12:3d:6f:33:37:4b:01:2e:1d:87:25:48:bf:50:23:
        7a:b0:02:41:5d:35:08:bf:e7:15:08:5c:11:7d:91:10:06:52:
        19:d3:05:01:94:86:07:f7:76:41:e1:fb:d9:1c:d0:ee:74:9f:
        51:66
-----BEGIN CERTIFICATE-----
MIIDKjCCApOgAwIBAgIDC1yIMA0GCSqGSIb3DQEBBQUAME4xCzAJBgNVBAYTAlVT
MRAwDgYDVQQKEwdFcXVpZmF4MS0wKwYDVQQLEyRFcXVpZmF4IFNlY3VyZSBDZXJ0
aWZpY2F0ZSBBdXRob3JpdHkwHhcNMDkwNjA0MDkxMzE2WhcNMTQwNjA1MTMxMzIy
WjCBtDELMAkGA1UEBhMCVVMxFjAUBgNVBAgTDU1hc3NhY2h1c2V0dHMxEjAQBgNV
BAcTCUNhbWJyaWRnZTEuMCwGA1UEChMlTWFzc2FjaHVzZXR0cyBJbnN0aXR1dGUg
b2YgVGVjaG5vbG9neTEtMCsGA1UECxMkU3R1ZGVudCBJbmZvcm1hdGlvbiBQcm9j
ZXNzaW5nIEJvYXJkMRowGAYDVQQDFBEqLnNjcmlwdHMubWl0LmVkdTCBnzANBgkq
hkiG9w0BAQEFAAOBjQAwgYkCgYEAtT4hTcGJawGMR4D+szcndvhSQeaiPUt2eOXy
ZjwPsa37l48uorZT07YO4mb5uQu3zrTV9RwfbyJ9SPVt8BbNjkh50RRKFC8v+MS9
HYfPfYtcd61YJLAOoW3WCsfYvC9nZchd2NgxwmdLSvShpVSCr8s0CCoEf458TLfb
3GqKXYECAwEAAaOBrjCBqzAOBgNVHQ8BAf8EBAMCBPAwHQYDVR0OBBYEFFQRfAlV
RByURamidkYrLCQmakToMDoGA1UdHwQzMDEwL6AtoCuGKWh0dHA6Ly9jcmwuZ2Vv
dHJ1c3QuY29tL2NybHMvc2VjdXJlY2EuY3JsMB8GA1UdIwQYMBaAFEjmaPkr0rKV
10fYIyAQTzOYkJ/UMB0GA1UdJQQWMBQGCCsGAQUFBwMBBggrBgEFBQcDAjANBgkq
hkiG9w0BAQUFAAOBgQAsJZCCooLoA1i0OBG8wLXwRO6z2V+Qq7P2JPqSa5w6fV2J
9KI8L8uFsv62kg8blGUt1nD4n3ecsyD6FpGd4bdkBydCi77i89l4cUISPW8zN0sB
Lh2HJUi/UCN6sAJBXTUIv+cVCFwRfZEQBlIZ0wUBlIYH93ZB4fvZHNDudJ9RZg==
-----END CERTIFICATE-----
