From mitcert@MIT.EDU Sat Nov 27 15:22:50 2010
Date: Sat, 27 Nov 2010 15:22:48 -0500 (EST)
From: mitcert@MIT.EDU
To: geofft@mit.edu
Subject: CSR for scripts site swe.mit.edu  [help.mit.edu #1413707]

Certificate:
    Data:
        Version: 3 (0x2)
        Serial Number:
            27:b6:8f:a5:ce:0f:fc:13:61:9e:29:6d:75:b5:4f:62
        Signature Algorithm: sha1WithRSAEncryption
        Issuer: C=US, ST=Massachusetts, O=Massachusetts Institute of Technology, OU=MIT Certification Authority
        Validity
            Not Before: Nov 26 17:00:00 2010 GMT
            Not After : Nov 24 17:00:00 2011 GMT
        Subject: C=US, ST=Massachusetts, L=Cambridge, O=Massachusetts Institute of Technology, OU=scripts.mit.edu web hosting service, CN=swe.mit.edu/emailAddress=scripts@mit.edu
        Subject Public Key Info:
            Public Key Algorithm: rsaEncryption
            RSA Public Key: (1024 bit)
                Modulus (1024 bit):
                    00:b5:3e:21:4d:c1:89:6b:01:8c:47:80:fe:b3:37:
                    27:76:f8:52:41:e6:a2:3d:4b:76:78:e5:f2:66:3c:
                    0f:b1:ad:fb:97:8f:2e:a2:b6:53:d3:b6:0e:e2:66:
                    f9:b9:0b:b7:ce:b4:d5:f5:1c:1f:6f:22:7d:48:f5:
                    6d:f0:16:cd:8e:48:79:d1:14:4a:14:2f:2f:f8:c4:
                    bd:1d:87:cf:7d:8b:5c:77:ad:58:24:b0:0e:a1:6d:
                    d6:0a:c7:d8:bc:2f:67:65:c8:5d:d8:d8:31:c2:67:
                    4b:4a:f4:a1:a5:54:82:af:cb:34:08:2a:04:7f:8e:
                    7c:4c:b7:db:dc:6a:8a:5d:81
                Exponent: 65537 (0x10001)
        X509v3 extensions:
            X509v3 Basic Constraints: 
                CA:FALSE
            Netscape Cert Type: 
                SSL Client, SSL Server, S/MIME
            X509v3 Extended Key Usage: 
                TLS Web Server Authentication, E-mail Protection, TLS Web Client Authentication
            X509v3 Key Usage: 
                Digital Signature, Non Repudiation, Key Encipherment
            X509v3 Subject Key Identifier: 
                54:11:7C:09:55:44:1C:94:45:A9:A2:76:46:2B:2C:24:26:6A:44:E8
            X509v3 CRL Distribution Points: 
                URI:http://ca.mit.edu/ca/mitserver.crl

    Signature Algorithm: sha1WithRSAEncryption
        bf:94:b6:02:4c:45:67:6c:d3:53:9e:d8:9a:f4:ca:a3:65:6c:
        20:a8:44:21:fc:12:cc:2b:bb:9f:de:34:dd:76:e7:54:07:12:
        e0:2e:f4:2c:ec:dc:ce:27:f8:72:d0:9a:16:90:ef:32:47:3a:
        ec:ca:8b:34:87:87:24:ee:01:ca:31:3d:f3:14:98:98:d0:55:
        4e:f2:20:38:3c:45:1e:c0:17:6c:45:15:4e:25:14:b9:5d:55:
        40:ae:ff:76:ee:17:f5:94:33:a7:80:ef:47:27:98:46:de:81:
        4b:ed:d7:19:1e:03:07:c4:9b:94:c0:a8:04:9e:f8:f5:c3:79:
        a2:d1
-----BEGIN CERTIFICATE-----
MIIDejCCAuOgAwIBAgIQJ7aPpc4P/BNhniltdbVPYjANBgkqhkiG9w0BAQUFADB7
MQswCQYDVQQGEwJVUzEWMBQGA1UECBMNTWFzc2FjaHVzZXR0czEuMCwGA1UEChMl
TWFzc2FjaHVzZXR0cyBJbnN0aXR1dGUgb2YgVGVjaG5vbG9neTEkMCIGA1UECxMb
TUlUIENlcnRpZmljYXRpb24gQXV0aG9yaXR5MB4XDTEwMTEyNjE3MDAwMFoXDTEx
MTEyNDE3MDAwMFowgc0xCzAJBgNVBAYTAlVTMRYwFAYDVQQIEw1NYXNzYWNodXNl
dHRzMRIwEAYDVQQHEwlDYW1icmlkZ2UxLjAsBgNVBAoTJU1hc3NhY2h1c2V0dHMg
SW5zdGl0dXRlIG9mIFRlY2hub2xvZ3kxLDAqBgNVBAsTI3NjcmlwdHMubWl0LmVk
dSB3ZWIgaG9zdGluZyBzZXJ2aWNlMRQwEgYDVQQDEwtzd2UubWl0LmVkdTEeMBwG
CSqGSIb3DQEJARYPc2NyaXB0c0BtaXQuZWR1MIGfMA0GCSqGSIb3DQEBAQUAA4GN
ADCBiQKBgQC1PiFNwYlrAYxHgP6zNyd2+FJB5qI9S3Z45fJmPA+xrfuXjy6itlPT
tg7iZvm5C7fOtNX1HB9vIn1I9W3wFs2OSHnRFEoULy/4xL0dh899i1x3rVgksA6h
bdYKx9i8L2dlyF3Y2DHCZ0tK9KGlVIKvyzQIKgR/jnxMt9vcaopdgQIDAQABo4Gr
MIGoMAkGA1UdEwQCMAAwEQYJYIZIAYb4QgEBBAQDAgXgMCcGA1UdJQQgMB4GCCsG
AQUFBwMBBggrBgEFBQcDBAYIKwYBBQUHAwIwCwYDVR0PBAQDAgXgMB0GA1UdDgQW
BBRUEXwJVUQclEWponZGKywkJmpE6DAzBgNVHR8ELDAqMCigJqAkhiJodHRwOi8v
Y2EubWl0LmVkdS9jYS9taXRzZXJ2ZXIuY3JsMA0GCSqGSIb3DQEBBQUAA4GBAL+U
tgJMRWds01Oe2Jr0yqNlbCCoRCH8Eswru5/eNN1251QHEuAu9Czs3M4n+HLQmhaQ
7zJHOuzKizSHhyTuAcoxPfMUmJjQVU7yIDg8RR7AF2xFFU4lFLldVUCu/3buF/WU
M6eA70cnmEbegUvt1xkeAwfEm5TAqASe+PXDeaLR
-----END CERTIFICATE-----

