From mitcert@MIT.EDU Sat Nov 27 15:29:45 2010
Date: Sat, 27 Nov 2010 15:29:43 -0500 (EST)
From: mitcert@MIT.EDU
To: geofft@mit.edu
Subject: CSR for scripts site techfair.mit.edu  [help.mit.edu #1413705]

Certificate:
    Data:
        Version: 3 (0x2)
        Serial Number:
            4e:9c:ce:a9:b4:dd:e8:a2:77:ee:f5:a8:9c:fc:22:9d
        Signature Algorithm: sha1WithRSAEncryption
        Issuer: C=US, ST=Massachusetts, O=Massachusetts Institute of Technology, OU=MIT Certification Authority
        Validity
            Not Before: Nov 26 17:00:00 2010 GMT
            Not After : Nov 24 17:00:00 2011 GMT
        Subject: C=US, ST=Massachusetts, L=Cambridge, O=Massachusetts Institute of Technology, OU=scripts.mit.edu web hosting service, CN=techfair.mit.edu/emailAddress=scripts@mit.edu
        Subject Public Key Info:
            Public Key Algorithm: rsaEncryption
            RSA Public Key: (1024 bit)
                Modulus (1024 bit):
                    00:b5:3e:21:4d:c1:89:6b:01:8c:47:80:fe:b3:37:
                    27:76:f8:52:41:e6:a2:3d:4b:76:78:e5:f2:66:3c:
                    0f:b1:ad:fb:97:8f:2e:a2:b6:53:d3:b6:0e:e2:66:
                    f9:b9:0b:b7:ce:b4:d5:f5:1c:1f:6f:22:7d:48:f5:
                    6d:f0:16:cd:8e:48:79:d1:14:4a:14:2f:2f:f8:c4:
                    bd:1d:87:cf:7d:8b:5c:77:ad:58:24:b0:0e:a1:6d:
                    d6:0a:c7:d8:bc:2f:67:65:c8:5d:d8:d8:31:c2:67:
                    4b:4a:f4:a1:a5:54:82:af:cb:34:08:2a:04:7f:8e:
                    7c:4c:b7:db:dc:6a:8a:5d:81
                Exponent: 65537 (0x10001)
        X509v3 extensions:
            X509v3 Basic Constraints: 
                CA:FALSE
            Netscape Cert Type: 
                SSL Client, SSL Server, S/MIME
            X509v3 Extended Key Usage: 
                TLS Web Server Authentication, E-mail Protection, TLS Web Client Authentication
            X509v3 Key Usage: 
                Digital Signature, Non Repudiation, Key Encipherment
            X509v3 Subject Key Identifier: 
                54:11:7C:09:55:44:1C:94:45:A9:A2:76:46:2B:2C:24:26:6A:44:E8
            X509v3 CRL Distribution Points: 
                URI:http://ca.mit.edu/ca/mitserver.crl

    Signature Algorithm: sha1WithRSAEncryption
        51:ca:b0:0a:00:8f:63:1b:de:25:e2:a8:47:f2:cb:f7:47:f7:
        e4:d5:7b:e4:cc:c6:9a:a5:38:26:2c:cb:e3:43:af:0f:d0:8a:
        7a:26:43:73:ec:0e:e3:70:8a:73:25:8d:40:8e:5a:7a:58:5d:
        91:b5:6e:05:08:67:b2:2f:b5:d6:2b:d9:67:58:5f:5d:65:b8:
        43:36:1f:00:fd:f2:32:16:08:e6:c2:30:33:89:bd:5f:c6:ff:
        95:91:78:c0:22:b2:d1:e8:2c:aa:bf:1b:37:ef:2a:45:ca:7c:
        0d:44:41:01:bb:09:cc:c6:d7:49:d1:74:f7:44:85:65:75:dc:
        b4:45
-----BEGIN CERTIFICATE-----
MIIDfzCCAuigAwIBAgIQTpzOqbTd6KJ37vWonPwinTANBgkqhkiG9w0BAQUFADB7
MQswCQYDVQQGEwJVUzEWMBQGA1UECBMNTWFzc2FjaHVzZXR0czEuMCwGA1UEChMl
TWFzc2FjaHVzZXR0cyBJbnN0aXR1dGUgb2YgVGVjaG5vbG9neTEkMCIGA1UECxMb
TUlUIENlcnRpZmljYXRpb24gQXV0aG9yaXR5MB4XDTEwMTEyNjE3MDAwMFoXDTEx
MTEyNDE3MDAwMFowgdIxCzAJBgNVBAYTAlVTMRYwFAYDVQQIEw1NYXNzYWNodXNl
dHRzMRIwEAYDVQQHEwlDYW1icmlkZ2UxLjAsBgNVBAoTJU1hc3NhY2h1c2V0dHMg
SW5zdGl0dXRlIG9mIFRlY2hub2xvZ3kxLDAqBgNVBAsTI3NjcmlwdHMubWl0LmVk
dSB3ZWIgaG9zdGluZyBzZXJ2aWNlMRkwFwYDVQQDExB0ZWNoZmFpci5taXQuZWR1
MR4wHAYJKoZIhvcNAQkBFg9zY3JpcHRzQG1pdC5lZHUwgZ8wDQYJKoZIhvcNAQEB
BQADgY0AMIGJAoGBALU+IU3BiWsBjEeA/rM3J3b4UkHmoj1Ldnjl8mY8D7Gt+5eP
LqK2U9O2DuJm+bkLt8601fUcH28ifUj1bfAWzY5IedEUShQvL/jEvR2Hz32LXHet
WCSwDqFt1grH2LwvZ2XIXdjYMcJnS0r0oaVUgq/LNAgqBH+OfEy329xqil2BAgMB
AAGjgaswgagwCQYDVR0TBAIwADARBglghkgBhvhCAQEEBAMCBeAwJwYDVR0lBCAw
HgYIKwYBBQUHAwEGCCsGAQUFBwMEBggrBgEFBQcDAjALBgNVHQ8EBAMCBeAwHQYD
VR0OBBYEFFQRfAlVRByURamidkYrLCQmakToMDMGA1UdHwQsMCowKKAmoCSGImh0
dHA6Ly9jYS5taXQuZWR1L2NhL21pdHNlcnZlci5jcmwwDQYJKoZIhvcNAQEFBQAD
gYEAUcqwCgCPYxveJeKoR/LL90f35NV75MzGmqU4JizL40OvD9CKeiZDc+wO43CK
cyWNQI5aelhdkbVuBQhnsi+11ivZZ1hfXWW4QzYfAP3yMhYI5sIwM4m9X8b/lZF4
wCKy0egsqr8bN+8qRcp8DURBAbsJzMbXSdF090SFZXXctEU=
-----END CERTIFICATE-----

