From mitcert@MIT.EDU Tue Nov 18 11:50:11 2008
Date: Tue, 18 Nov 2008 11:44:55 -0500 (EST)
From: mitcert@MIT.EDU
To: geofft@mit.edu
Subject: CSR for scripts virtual host: textbooks.mit.edu  [help.mit.edu #754404]

Certificate:
    Data:
        Version: 3 (0x2)
        Serial Number: 3120 (0xc30)
        Signature Algorithm: sha1WithRSAEncryption
        Issuer: C=US, ST=Massachusetts, O=Massachusetts Institute of Technology, OU=MIT Certification Authority
        Validity
            Not Before: Nov 16 17:00:00 2008 GMT
            Not After : Nov 16 17:00:00 2009 GMT
        Subject: C=US, ST=Massachusetts, L=Cambridge, O=Massachusetts Institute of Technology, OU=Student Information Processing Board, CN=textbooks.mit.edu/Email=scripts@mit.edu
        Subject Public Key Info:
            Public Key Algorithm: rsaEncryption
            RSA Public Key: (1024 bit)
                Modulus (1024 bit):
                    00:b5:3e:21:4d:c1:89:6b:01:8c:47:80:fe:b3:37:
                    27:76:f8:52:41:e6:a2:3d:4b:76:78:e5:f2:66:3c:
                    0f:b1:ad:fb:97:8f:2e:a2:b6:53:d3:b6:0e:e2:66:
                    f9:b9:0b:b7:ce:b4:d5:f5:1c:1f:6f:22:7d:48:f5:
                    6d:f0:16:cd:8e:48:79:d1:14:4a:14:2f:2f:f8:c4:
                    bd:1d:87:cf:7d:8b:5c:77:ad:58:24:b0:0e:a1:6d:
                    d6:0a:c7:d8:bc:2f:67:65:c8:5d:d8:d8:31:c2:67:
                    4b:4a:f4:a1:a5:54:82:af:cb:34:08:2a:04:7f:8e:
                    7c:4c:b7:db:dc:6a:8a:5d:81
                Exponent: 65537 (0x10001)
        X509v3 extensions:
            X509v3 Basic Constraints: 
                CA:FALSE
            Netscape Cert Type: 
                SSL Client, SSL Server, S/MIME
            X509v3 Extended Key Usage: 
                TLS Web Server Authentication, E-mail Protection, TLS Web Client Authentication
            X509v3 Key Usage: 
                Digital Signature, Non Repudiation, Key Encipherment
            X509v3 Subject Key Identifier: 
                54:11:7C:09:55:44:1C:94:45:A9:A2:76:46:2B:2C:24:26:6A:44:E8
    Signature Algorithm: sha1WithRSAEncryption
        21:82:ae:5c:43:40:ac:20:34:a6:02:e4:07:87:c7:95:d3:d1:
        15:0e:52:0f:2e:2a:44:bf:bd:a9:06:43:3c:60:58:5a:36:9f:
        66:ac:4f:ce:89:9f:d3:7d:46:31:52:42:52:b6:11:e4:8d:44:
        48:a5:e0:df:f1:51:ef:36:7e:d6:db:a3:f4:01:2f:4b:1f:05:
        bd:de:47:b5:58:dc:60:8a:9a:db:e5:d2:08:0c:0b:13:a2:59:
        35:24:d3:36:2c:10:d4:8b:bc:ac:69:3c:9e:26:7d:90:15:ce:
        fd:e7:d9:08:62:4a:90:b9:59:ce:eb:f8:c0:b0:0f:2f:93:a0:
        f1:9c
-----BEGIN CERTIFICATE-----
MIIDPDCCAqWgAwIBAgICDDAwDQYJKoZIhvcNAQEFBQAwezELMAkGA1UEBhMCVVMx
FjAUBgNVBAgTDU1hc3NhY2h1c2V0dHMxLjAsBgNVBAoTJU1hc3NhY2h1c2V0dHMg
SW5zdGl0dXRlIG9mIFRlY2hub2xvZ3kxJDAiBgNVBAsTG01JVCBDZXJ0aWZpY2F0
aW9uIEF1dGhvcml0eTAeFw0wODExMTYxNzAwMDBaFw0wOTExMTYxNzAwMDBaMIHU
MQswCQYDVQQGEwJVUzEWMBQGA1UECBMNTWFzc2FjaHVzZXR0czESMBAGA1UEBxMJ
Q2FtYnJpZGdlMS4wLAYDVQQKEyVNYXNzYWNodXNldHRzIEluc3RpdHV0ZSBvZiBU
ZWNobm9sb2d5MS0wKwYDVQQLEyRTdHVkZW50IEluZm9ybWF0aW9uIFByb2Nlc3Np
bmcgQm9hcmQxGjAYBgNVBAMTEXRleHRib29rcy5taXQuZWR1MR4wHAYJKoZIhvcN
AQkBFg9zY3JpcHRzQG1pdC5lZHUwgZ8wDQYJKoZIhvcNAQEBBQADgY0AMIGJAoGB
ALU+IU3BiWsBjEeA/rM3J3b4UkHmoj1Ldnjl8mY8D7Gt+5ePLqK2U9O2DuJm+bkL
t8601fUcH28ifUj1bfAWzY5IedEUShQvL/jEvR2Hz32LXHetWCSwDqFt1grH2Lwv
Z2XIXdjYMcJnS0r0oaVUgq/LNAgqBH+OfEy329xqil2BAgMBAAGjdTBzMAkGA1Ud
EwQCMAAwEQYJYIZIAYb4QgEBBAQDAgXgMCcGA1UdJQQgMB4GCCsGAQUFBwMBBggr
BgEFBQcDBAYIKwYBBQUHAwIwCwYDVR0PBAQDAgXgMB0GA1UdDgQWBBRUEXwJVUQc
lEWponZGKywkJmpE6DANBgkqhkiG9w0BAQUFAAOBgQAhgq5cQ0CsIDSmAuQHh8eV
09EVDlIPLipEv72pBkM8YFhaNp9mrE/OiZ/TfUYxUkJSthHkjURIpeDf8VHvNn7W
26P0AS9LHwW93ke1WNxgiprb5dIIDAsTolk1JNM2LBDUi7ysaTyeJn2QFc7959kI
YkqQuVnO6/jAsA8vk6DxnA==
-----END CERTIFICATE-----

