From mitcert@MIT.EDU Sat Nov 27 15:28:25 2010
Date: Sat, 27 Nov 2010 15:28:24 -0500 (EST)
From: mitcert@MIT.EDU
To: geofft@mit.edu
Subject: CSR for tf.mit.edu  [help.mit.edu #1413706]

Certificate:
    Data:
        Version: 3 (0x2)
        Serial Number:
            e3:74:d4:47:41:27:3d:7f:79:d2:1e:85:34:0b:a6:d2
        Signature Algorithm: sha1WithRSAEncryption
        Issuer: C=US, ST=Massachusetts, O=Massachusetts Institute of Technology, OU=MIT Certification Authority
        Validity
            Not Before: Nov 26 17:00:00 2010 GMT
            Not After : Nov 24 17:00:00 2011 GMT
        Subject: C=US, ST=Massachusetts, L=Cambridge, O=Massachusetts Institute of Technology, OU=scripts.mit.edu web hosting service, CN=tf.mit.edu/emailAddress=scripts@mit.edu
        Subject Public Key Info:
            Public Key Algorithm: rsaEncryption
            RSA Public Key: (1024 bit)
                Modulus (1024 bit):
                    00:b5:3e:21:4d:c1:89:6b:01:8c:47:80:fe:b3:37:
                    27:76:f8:52:41:e6:a2:3d:4b:76:78:e5:f2:66:3c:
                    0f:b1:ad:fb:97:8f:2e:a2:b6:53:d3:b6:0e:e2:66:
                    f9:b9:0b:b7:ce:b4:d5:f5:1c:1f:6f:22:7d:48:f5:
                    6d:f0:16:cd:8e:48:79:d1:14:4a:14:2f:2f:f8:c4:
                    bd:1d:87:cf:7d:8b:5c:77:ad:58:24:b0:0e:a1:6d:
                    d6:0a:c7:d8:bc:2f:67:65:c8:5d:d8:d8:31:c2:67:
                    4b:4a:f4:a1:a5:54:82:af:cb:34:08:2a:04:7f:8e:
                    7c:4c:b7:db:dc:6a:8a:5d:81
                Exponent: 65537 (0x10001)
        X509v3 extensions:
            X509v3 Basic Constraints: 
                CA:FALSE
            Netscape Cert Type: 
                SSL Client, SSL Server, S/MIME
            X509v3 Extended Key Usage: 
                TLS Web Server Authentication, E-mail Protection, TLS Web Client Authentication
            X509v3 Key Usage: 
                Digital Signature, Non Repudiation, Key Encipherment
            X509v3 Subject Key Identifier: 
                54:11:7C:09:55:44:1C:94:45:A9:A2:76:46:2B:2C:24:26:6A:44:E8
            X509v3 CRL Distribution Points: 
                URI:http://ca.mit.edu/ca/mitserver.crl

    Signature Algorithm: sha1WithRSAEncryption
        99:53:43:b5:a8:7f:b4:1f:9f:3e:64:ec:32:a9:d0:e3:be:6c:
        3f:dd:3d:52:4c:db:a9:2d:67:15:27:53:5d:da:3c:03:c8:92:
        41:8f:73:8d:81:74:ab:f9:c8:ad:4a:55:b1:8b:f8:02:b0:82:
        50:95:f1:4d:a4:c1:49:3f:65:fe:47:40:7b:ee:65:6d:7d:c4:
        3a:a8:55:3b:9e:57:f6:68:77:86:24:31:a5:e6:b4:30:dc:5d:
        74:1b:54:9a:79:9a:ca:cd:77:58:64:f8:d6:20:36:8d:fe:9c:
        6c:de:e5:b0:0d:65:7c:7d:c8:d1:e7:ae:97:19:70:29:3c:d5:
        eb:75
-----BEGIN CERTIFICATE-----
MIIDejCCAuOgAwIBAgIRAON01EdBJz1/edIehTQLptIwDQYJKoZIhvcNAQEFBQAw
ezELMAkGA1UEBhMCVVMxFjAUBgNVBAgTDU1hc3NhY2h1c2V0dHMxLjAsBgNVBAoT
JU1hc3NhY2h1c2V0dHMgSW5zdGl0dXRlIG9mIFRlY2hub2xvZ3kxJDAiBgNVBAsT
G01JVCBDZXJ0aWZpY2F0aW9uIEF1dGhvcml0eTAeFw0xMDExMjYxNzAwMDBaFw0x
MTExMjQxNzAwMDBaMIHMMQswCQYDVQQGEwJVUzEWMBQGA1UECBMNTWFzc2FjaHVz
ZXR0czESMBAGA1UEBxMJQ2FtYnJpZGdlMS4wLAYDVQQKEyVNYXNzYWNodXNldHRz
IEluc3RpdHV0ZSBvZiBUZWNobm9sb2d5MSwwKgYDVQQLEyNzY3JpcHRzLm1pdC5l
ZHUgd2ViIGhvc3Rpbmcgc2VydmljZTETMBEGA1UEAxMKdGYubWl0LmVkdTEeMBwG
CSqGSIb3DQEJARYPc2NyaXB0c0BtaXQuZWR1MIGfMA0GCSqGSIb3DQEBAQUAA4GN
ADCBiQKBgQC1PiFNwYlrAYxHgP6zNyd2+FJB5qI9S3Z45fJmPA+xrfuXjy6itlPT
tg7iZvm5C7fOtNX1HB9vIn1I9W3wFs2OSHnRFEoULy/4xL0dh899i1x3rVgksA6h
bdYKx9i8L2dlyF3Y2DHCZ0tK9KGlVIKvyzQIKgR/jnxMt9vcaopdgQIDAQABo4Gr
MIGoMAkGA1UdEwQCMAAwEQYJYIZIAYb4QgEBBAQDAgXgMCcGA1UdJQQgMB4GCCsG
AQUFBwMBBggrBgEFBQcDBAYIKwYBBQUHAwIwCwYDVR0PBAQDAgXgMB0GA1UdDgQW
BBRUEXwJVUQclEWponZGKywkJmpE6DAzBgNVHR8ELDAqMCigJqAkhiJodHRwOi8v
Y2EubWl0LmVkdS9jYS9taXRzZXJ2ZXIuY3JsMA0GCSqGSIb3DQEBBQUAA4GBAJlT
Q7Wof7Qfnz5k7DKp0OO+bD/dPVJM26ktZxUnU13aPAPIkkGPc42BdKv5yK1KVbGL
+AKwglCV8U2kwUk/Zf5HQHvuZW19xDqoVTueV/Zod4YkMaXmtDDcXXQbVJp5msrN
d1hk+NYgNo3+nGze5bANZXx9yNHnrpcZcCk81et1
-----END CERTIFICATE-----

