From mitcert@MIT.EDU Sun Mar 28 08:41:20 2010
Date: Sun, 28 Mar 2010 08:41:19 -0400 (EDT)
From: mitcert@MIT.EDU
To: mitchb@mit.edu
Subject: Certificate signing request for tibetforum.mit.edu  [help.mit.edu #1192689]

Certificate:
    Data:
        Version: 3 (0x2)
        Serial Number:
            c7:86:b6:dc:40:8e:6f:46:12:85:1e:fe:5a:5c:71:8b
        Signature Algorithm: sha1WithRSAEncryption
        Issuer: C=US, ST=Massachusetts, O=Massachusetts Institute of Technology, OU=MIT Certification Authority
        Validity
            Not Before: Mar 26 16:00:00 2010 GMT
            Not After : Mar 28 16:00:00 2011 GMT
        Subject: C=US, ST=Massachusetts, L=Cambridge, O=Massachusetts Institute of Technology, OU=scripts.mit.edu web hosting service, CN=tibetforum.mit.edu/emailAddress=scripts@mit.edu
        Subject Public Key Info:
            Public Key Algorithm: rsaEncryption
            RSA Public Key: (1024 bit)
                Modulus (1024 bit):
                    00:b5:3e:21:4d:c1:89:6b:01:8c:47:80:fe:b3:37:
                    27:76:f8:52:41:e6:a2:3d:4b:76:78:e5:f2:66:3c:
                    0f:b1:ad:fb:97:8f:2e:a2:b6:53:d3:b6:0e:e2:66:
                    f9:b9:0b:b7:ce:b4:d5:f5:1c:1f:6f:22:7d:48:f5:
                    6d:f0:16:cd:8e:48:79:d1:14:4a:14:2f:2f:f8:c4:
                    bd:1d:87:cf:7d:8b:5c:77:ad:58:24:b0:0e:a1:6d:
                    d6:0a:c7:d8:bc:2f:67:65:c8:5d:d8:d8:31:c2:67:
                    4b:4a:f4:a1:a5:54:82:af:cb:34:08:2a:04:7f:8e:
                    7c:4c:b7:db:dc:6a:8a:5d:81
                Exponent: 65537 (0x10001)
        X509v3 extensions:
            X509v3 Basic Constraints: 
                CA:FALSE
            Netscape Cert Type: 
                SSL Client, SSL Server, S/MIME
            X509v3 Extended Key Usage: 
                TLS Web Server Authentication, E-mail Protection, TLS Web Client Authentication
            X509v3 Key Usage: 
                Digital Signature, Non Repudiation, Key Encipherment
            X509v3 Subject Key Identifier: 
                54:11:7C:09:55:44:1C:94:45:A9:A2:76:46:2B:2C:24:26:6A:44:E8
            X509v3 CRL Distribution Points: 
                URI:http://ca.mit.edu/ca/mitserver.crl

    Signature Algorithm: sha1WithRSAEncryption
        6a:e1:6e:5d:fe:34:19:ea:dd:68:2b:23:f5:1c:be:f3:53:44:
        51:e8:c1:46:67:f3:a7:67:a2:b7:f5:7a:77:d6:b0:f0:94:08:
        18:98:14:0a:d6:74:ae:94:17:bd:81:be:93:b9:ca:1b:ee:71:
        01:ca:a1:e6:48:3c:99:78:9b:c0:db:94:22:1d:97:ba:f1:6b:
        22:bc:f3:18:ef:8b:09:43:0d:b0:f9:b7:2a:c1:53:88:6f:86:
        22:df:1b:82:6b:8f:06:96:a1:68:81:e9:00:00:df:7f:d4:f2:
        76:92:dc:7d:68:bd:c6:31:66:89:85:a1:44:21:7c:9b:37:27:
        7e:06
-----BEGIN CERTIFICATE-----
MIIDgjCCAuugAwIBAgIRAMeGttxAjm9GEoUe/lpccYswDQYJKoZIhvcNAQEFBQAw
ezELMAkGA1UEBhMCVVMxFjAUBgNVBAgTDU1hc3NhY2h1c2V0dHMxLjAsBgNVBAoT
JU1hc3NhY2h1c2V0dHMgSW5zdGl0dXRlIG9mIFRlY2hub2xvZ3kxJDAiBgNVBAsT
G01JVCBDZXJ0aWZpY2F0aW9uIEF1dGhvcml0eTAeFw0xMDAzMjYxNjAwMDBaFw0x
MTAzMjgxNjAwMDBaMIHUMQswCQYDVQQGEwJVUzEWMBQGA1UECBMNTWFzc2FjaHVz
ZXR0czESMBAGA1UEBxMJQ2FtYnJpZGdlMS4wLAYDVQQKEyVNYXNzYWNodXNldHRz
IEluc3RpdHV0ZSBvZiBUZWNobm9sb2d5MSwwKgYDVQQLEyNzY3JpcHRzLm1pdC5l
ZHUgd2ViIGhvc3Rpbmcgc2VydmljZTEbMBkGA1UEAxMSdGliZXRmb3J1bS5taXQu
ZWR1MR4wHAYJKoZIhvcNAQkBFg9zY3JpcHRzQG1pdC5lZHUwgZ8wDQYJKoZIhvcN
AQEBBQADgY0AMIGJAoGBALU+IU3BiWsBjEeA/rM3J3b4UkHmoj1Ldnjl8mY8D7Gt
+5ePLqK2U9O2DuJm+bkLt8601fUcH28ifUj1bfAWzY5IedEUShQvL/jEvR2Hz32L
XHetWCSwDqFt1grH2LwvZ2XIXdjYMcJnS0r0oaVUgq/LNAgqBH+OfEy329xqil2B
AgMBAAGjgaswgagwCQYDVR0TBAIwADARBglghkgBhvhCAQEEBAMCBeAwJwYDVR0l
BCAwHgYIKwYBBQUHAwEGCCsGAQUFBwMEBggrBgEFBQcDAjALBgNVHQ8EBAMCBeAw
HQYDVR0OBBYEFFQRfAlVRByURamidkYrLCQmakToMDMGA1UdHwQsMCowKKAmoCSG
Imh0dHA6Ly9jYS5taXQuZWR1L2NhL21pdHNlcnZlci5jcmwwDQYJKoZIhvcNAQEF
BQADgYEAauFuXf40GerdaCsj9Ry+81NEUejBRmfzp2eit/V6d9aw8JQIGJgUCtZ0
rpQXvYG+k7nKG+5xAcqh5kg8mXibwNuUIh2XuvFrIrzzGO+LCUMNsPm3KsFTiG+G
It8bgmuPBpahaIHpAADff9TydpLcfWi9xjFmiYWhRCF8mzcnfgY=
-----END CERTIFICATE-----

