From mitcert@MIT.EDU Tue Apr  7 10:34:18 2009
Date: Tue, 7 Apr 2009 10:34:05 -0400 (EDT)
From: mitcert@MIT.EDU
To: quentin@mit.edu
Subject: CSR for tibetforum.mit.edu  [help.mit.edu #851501]

Certificate:
    Data:
        Version: 3 (0x2)
        Serial Number: 3426 (0xd62)
        Signature Algorithm: sha1WithRSAEncryption
        Issuer: C=US, ST=Massachusetts, O=Massachusetts Institute of Technology, OU=MIT Certification Authority
        Validity
            Not Before: Apr  5 16:00:00 2009 GMT
            Not After : Apr  5 16:00:00 2010 GMT
        Subject: C=US, ST=Massachusetts, L=Cambridge, O=Massachusetts Institute of Technology, OU=Student Information Processing Board, CN=tibetforum.mit.edu/Email=scripts@mit.edu
        Subject Public Key Info:
            Public Key Algorithm: rsaEncryption
            RSA Public Key: (1024 bit)
                Modulus (1024 bit):
                    00:b5:3e:21:4d:c1:89:6b:01:8c:47:80:fe:b3:37:
                    27:76:f8:52:41:e6:a2:3d:4b:76:78:e5:f2:66:3c:
                    0f:b1:ad:fb:97:8f:2e:a2:b6:53:d3:b6:0e:e2:66:
                    f9:b9:0b:b7:ce:b4:d5:f5:1c:1f:6f:22:7d:48:f5:
                    6d:f0:16:cd:8e:48:79:d1:14:4a:14:2f:2f:f8:c4:
                    bd:1d:87:cf:7d:8b:5c:77:ad:58:24:b0:0e:a1:6d:
                    d6:0a:c7:d8:bc:2f:67:65:c8:5d:d8:d8:31:c2:67:
                    4b:4a:f4:a1:a5:54:82:af:cb:34:08:2a:04:7f:8e:
                    7c:4c:b7:db:dc:6a:8a:5d:81
                Exponent: 65537 (0x10001)
        X509v3 extensions:
            X509v3 Basic Constraints: 
                CA:FALSE
            Netscape Cert Type: 
                SSL Client, SSL Server, S/MIME
            X509v3 Extended Key Usage: 
                TLS Web Server Authentication, E-mail Protection, TLS Web Client Authentication
            X509v3 Key Usage: 
                Digital Signature, Non Repudiation, Key Encipherment
            X509v3 Subject Key Identifier: 
                54:11:7C:09:55:44:1C:94:45:A9:A2:76:46:2B:2C:24:26:6A:44:E8
    Signature Algorithm: sha1WithRSAEncryption
        b7:b5:51:be:69:33:97:48:61:35:ef:6a:77:77:a6:4c:58:ec:
        d4:3f:1d:1b:79:42:73:04:27:d5:6a:fd:44:eb:2c:42:59:55:
        be:f1:14:7e:e1:ee:39:d6:f0:8f:02:73:07:66:bb:39:cd:a4:
        a5:e9:e3:1b:16:c4:e4:5e:2e:85:ce:bc:0e:90:00:73:09:50:
        42:03:94:0e:3a:06:a8:5a:bb:f9:66:4c:39:af:21:73:18:b6:
        7b:38:df:6b:bf:1a:58:f0:33:8e:c9:bd:d0:b2:a9:16:89:6f:
        ea:ce:61:38:9f:91:51:d7:7a:34:bf:cb:d8:65:c6:20:b0:05:
        d7:d1
-----BEGIN CERTIFICATE-----
MIIDPTCCAqagAwIBAgICDWIwDQYJKoZIhvcNAQEFBQAwezELMAkGA1UEBhMCVVMx
FjAUBgNVBAgTDU1hc3NhY2h1c2V0dHMxLjAsBgNVBAoTJU1hc3NhY2h1c2V0dHMg
SW5zdGl0dXRlIG9mIFRlY2hub2xvZ3kxJDAiBgNVBAsTG01JVCBDZXJ0aWZpY2F0
aW9uIEF1dGhvcml0eTAeFw0wOTA0MDUxNjAwMDBaFw0xMDA0MDUxNjAwMDBaMIHV
MQswCQYDVQQGEwJVUzEWMBQGA1UECBMNTWFzc2FjaHVzZXR0czESMBAGA1UEBxMJ
Q2FtYnJpZGdlMS4wLAYDVQQKEyVNYXNzYWNodXNldHRzIEluc3RpdHV0ZSBvZiBU
ZWNobm9sb2d5MS0wKwYDVQQLEyRTdHVkZW50IEluZm9ybWF0aW9uIFByb2Nlc3Np
bmcgQm9hcmQxGzAZBgNVBAMTEnRpYmV0Zm9ydW0ubWl0LmVkdTEeMBwGCSqGSIb3
DQEJARYPc2NyaXB0c0BtaXQuZWR1MIGfMA0GCSqGSIb3DQEBAQUAA4GNADCBiQKB
gQC1PiFNwYlrAYxHgP6zNyd2+FJB5qI9S3Z45fJmPA+xrfuXjy6itlPTtg7iZvm5
C7fOtNX1HB9vIn1I9W3wFs2OSHnRFEoULy/4xL0dh899i1x3rVgksA6hbdYKx9i8
L2dlyF3Y2DHCZ0tK9KGlVIKvyzQIKgR/jnxMt9vcaopdgQIDAQABo3UwczAJBgNV
HRMEAjAAMBEGCWCGSAGG+EIBAQQEAwIF4DAnBgNVHSUEIDAeBggrBgEFBQcDAQYI
KwYBBQUHAwQGCCsGAQUFBwMCMAsGA1UdDwQEAwIF4DAdBgNVHQ4EFgQUVBF8CVVE
HJRFqaJ2RissJCZqROgwDQYJKoZIhvcNAQEFBQADgYEAt7VRvmkzl0hhNe9qd3em
TFjs1D8dG3lCcwQn1Wr9ROssQllVvvEUfuHuOdbwjwJzB2a7Oc2kpenjGxbE5F4u
hc68DpAAcwlQQgOUDjoGqFq7+WZMOa8hcxi2ezjfa78aWPAzjsm90LKpFolv6s5h
OJ+RUdd6NL/L2GXGILAF19E=
-----END CERTIFICATE-----

