From mitcert@MIT.EDU Thu Jun 17 08:13:52 2010
Date: Thu, 17 Jun 2010 08:13:51 -0400 (EDT)
From: mitcert@MIT.EDU
To: mitchb@mit.edu
Subject: Certificate signing request for tours.mit.edu  [help.mit.edu #1263305]

Certificate:
    Data:
        Version: 3 (0x2)
        Serial Number:
            63:75:30:51:9d:87:bd:ac:0d:9b:0d:27:00:13:b9:b5
        Signature Algorithm: sha1WithRSAEncryption
        Issuer: C=US, ST=Massachusetts, O=Massachusetts Institute of Technology, OU=MIT Certification Authority
        Validity
            Not Before: Jun 15 16:00:00 2010 GMT
            Not After : Jun 16 16:00:00 2011 GMT
        Subject: C=US, ST=Massachusetts, L=Cambridge, O=Massachusetts Institute of Technology, OU=scripts.mit.edu web hosting service, CN=tours.mit.edu/emailAddress=scripts@mit.edu
        Subject Public Key Info:
            Public Key Algorithm: rsaEncryption
            RSA Public Key: (1024 bit)
                Modulus (1024 bit):
                    00:b5:3e:21:4d:c1:89:6b:01:8c:47:80:fe:b3:37:
                    27:76:f8:52:41:e6:a2:3d:4b:76:78:e5:f2:66:3c:
                    0f:b1:ad:fb:97:8f:2e:a2:b6:53:d3:b6:0e:e2:66:
                    f9:b9:0b:b7:ce:b4:d5:f5:1c:1f:6f:22:7d:48:f5:
                    6d:f0:16:cd:8e:48:79:d1:14:4a:14:2f:2f:f8:c4:
                    bd:1d:87:cf:7d:8b:5c:77:ad:58:24:b0:0e:a1:6d:
                    d6:0a:c7:d8:bc:2f:67:65:c8:5d:d8:d8:31:c2:67:
                    4b:4a:f4:a1:a5:54:82:af:cb:34:08:2a:04:7f:8e:
                    7c:4c:b7:db:dc:6a:8a:5d:81
                Exponent: 65537 (0x10001)
        X509v3 extensions:
            X509v3 Basic Constraints: 
                CA:FALSE
            Netscape Cert Type: 
                SSL Client, SSL Server, S/MIME
            X509v3 Extended Key Usage: 
                TLS Web Server Authentication, E-mail Protection, TLS Web Client Authentication
            X509v3 Key Usage: 
                Digital Signature, Non Repudiation, Key Encipherment
            X509v3 Subject Key Identifier: 
                54:11:7C:09:55:44:1C:94:45:A9:A2:76:46:2B:2C:24:26:6A:44:E8
            X509v3 CRL Distribution Points: 
                URI:http://ca.mit.edu/ca/mitserver.crl

    Signature Algorithm: sha1WithRSAEncryption
        5e:72:af:24:29:41:16:76:f9:61:0d:e1:ad:16:05:00:90:8c:
        c4:42:41:ae:20:3b:cc:9f:e8:e5:de:07:26:35:bd:54:1a:95:
        4f:20:7b:5a:5d:e1:5b:10:ac:6b:c1:24:0d:22:cd:ef:d2:16:
        67:2a:33:b1:4e:8f:da:44:56:35:98:b0:67:67:47:ca:c5:89:
        51:26:7e:cd:e9:5c:c2:74:73:d1:ac:ff:20:03:ee:76:17:97:
        6c:d9:e2:74:c1:48:89:a4:b8:53:70:24:23:36:b8:f4:c4:ed:
        76:9d:6a:d2:69:26:07:a7:79:fd:9f:9b:b1:f9:64:00:c2:61:
        48:5e
-----BEGIN CERTIFICATE-----
MIIDfDCCAuWgAwIBAgIQY3UwUZ2HvawNmw0nABO5tTANBgkqhkiG9w0BAQUFADB7
MQswCQYDVQQGEwJVUzEWMBQGA1UECBMNTWFzc2FjaHVzZXR0czEuMCwGA1UEChMl
TWFzc2FjaHVzZXR0cyBJbnN0aXR1dGUgb2YgVGVjaG5vbG9neTEkMCIGA1UECxMb
TUlUIENlcnRpZmljYXRpb24gQXV0aG9yaXR5MB4XDTEwMDYxNTE2MDAwMFoXDTEx
MDYxNjE2MDAwMFowgc8xCzAJBgNVBAYTAlVTMRYwFAYDVQQIEw1NYXNzYWNodXNl
dHRzMRIwEAYDVQQHEwlDYW1icmlkZ2UxLjAsBgNVBAoTJU1hc3NhY2h1c2V0dHMg
SW5zdGl0dXRlIG9mIFRlY2hub2xvZ3kxLDAqBgNVBAsTI3NjcmlwdHMubWl0LmVk
dSB3ZWIgaG9zdGluZyBzZXJ2aWNlMRYwFAYDVQQDEw10b3Vycy5taXQuZWR1MR4w
HAYJKoZIhvcNAQkBFg9zY3JpcHRzQG1pdC5lZHUwgZ8wDQYJKoZIhvcNAQEBBQAD
gY0AMIGJAoGBALU+IU3BiWsBjEeA/rM3J3b4UkHmoj1Ldnjl8mY8D7Gt+5ePLqK2
U9O2DuJm+bkLt8601fUcH28ifUj1bfAWzY5IedEUShQvL/jEvR2Hz32LXHetWCSw
DqFt1grH2LwvZ2XIXdjYMcJnS0r0oaVUgq/LNAgqBH+OfEy329xqil2BAgMBAAGj
gaswgagwCQYDVR0TBAIwADARBglghkgBhvhCAQEEBAMCBeAwJwYDVR0lBCAwHgYI
KwYBBQUHAwEGCCsGAQUFBwMEBggrBgEFBQcDAjALBgNVHQ8EBAMCBeAwHQYDVR0O
BBYEFFQRfAlVRByURamidkYrLCQmakToMDMGA1UdHwQsMCowKKAmoCSGImh0dHA6
Ly9jYS5taXQuZWR1L2NhL21pdHNlcnZlci5jcmwwDQYJKoZIhvcNAQEFBQADgYEA
XnKvJClBFnb5YQ3hrRYFAJCMxEJBriA7zJ/o5d4HJjW9VBqVTyB7Wl3hWxCsa8Ek
DSLN79IWZyozsU6P2kRWNZiwZ2dHysWJUSZ+zelcwnRz0az/IAPudheXbNnidMFI
iaS4U3AkIza49MTtdp1q0mkmB6d5/Z+bsflkAMJhSF4=
-----END CERTIFICATE-----

