From mitcert@MIT.EDU Sat Oct 15 11:10:42 2011
Date: Sat, 15 Oct 2011 11:10:41 -0400
From: "mitcert@MIT.EDU" <mitcert@MIT.EDU>
To: Alexander Chernyakhovsky <achernya@mit.edu>
Subject: [help.mit.edu #1768744] certificate renewal for scripts-vhost twentytwelve.mit.edu 

Certificate:
    Data:
        Version: 3 (0x2)
        Serial Number:
            8c:b1:0c:7e:94:82:af:5d:33:40:88:2c:82:42:13:b8
        Signature Algorithm: sha1WithRSAEncryption
        Issuer: C=US, ST=Massachusetts, O=Massachusetts Institute of Technology, OU=MIT Certification Authority
        Validity
            Not Before: Oct 13 16:00:00 2011 GMT
            Not After : Oct 11 16:00:00 2012 GMT
        Subject: C=US, ST=Massachusetts, L=Cambridge, O=Massachusetts Institute of Technology, OU=scripts.mit.edu web hosting service, CN=twentytwelve.mit.edu/emailAddress=scripts@mit.edu
        Subject Public Key Info:
            Public Key Algorithm: rsaEncryption
            RSA Public Key: (4096 bit)
                Modulus (4096 bit):
                    00:bf:a3:f2:7b:98:cc:16:a7:57:e6:92:85:34:56:
                    f1:e3:62:83:9e:6a:4f:35:9d:f0:cf:89:87:73:e3:
                    93:f7:b7:01:57:38:6e:e9:fc:59:4d:24:eb:a7:17:
                    47:ca:2c:51:0e:45:c8:b7:68:c9:0e:32:26:e0:91:
                    d3:06:5c:8c:7c:0e:6c:99:0c:b2:46:05:0f:4d:f1:
                    b0:c7:5e:35:06:62:fe:2a:d6:0f:1b:2c:b5:02:24:
                    4c:c3:06:71:ec:94:ca:1d:aa:af:7e:b9:2d:c0:55:
                    4b:cc:bc:51:3d:76:68:5b:d3:ed:35:d0:03:ba:1b:
                    6c:f3:a0:d8:d3:dc:6b:44:b0:5e:01:51:d3:02:cc:
                    4a:da:52:12:de:35:31:69:16:5a:48:8b:0f:ce:ad:
                    4d:e4:d5:8b:11:36:7f:87:1c:fd:84:da:43:2e:87:
                    2f:41:70:ac:ad:df:54:c0:ed:f6:21:51:fa:c5:06:
                    f0:1b:eb:a1:b0:bf:4d:1c:42:34:8a:d5:6f:f7:25:
                    66:73:8f:60:c4:d7:8d:33:91:f4:46:3a:97:09:59:
                    01:ff:c3:64:94:40:48:30:68:f0:6e:03:26:74:c2:
                    a1:b3:d7:cb:94:fc:6e:53:8a:2a:9e:fd:b1:4f:c4:
                    74:56:25:63:1f:aa:bd:95:25:78:9c:45:46:1b:0c:
                    21:71:eb:84:94:d0:b2:f1:da:52:f6:d1:7f:63:1d:
                    08:23:52:5f:c2:f9:4d:ac:a4:44:e5:9a:54:70:fc:
                    c9:fc:d4:d4:b7:1d:75:95:00:e3:bf:3e:4c:f3:43:
                    c3:96:c7:09:2a:29:45:12:d2:31:d6:79:4c:8a:e7:
                    54:27:22:c6:80:ae:87:23:56:f1:8d:49:9b:c8:fa:
                    ed:33:5b:5f:56:76:c8:0f:7e:85:14:69:c4:48:31:
                    07:39:a5:34:81:f2:6b:15:50:22:fb:bb:2c:ad:4b:
                    84:ea:55:64:f7:de:56:9d:d0:b6:d0:7d:1e:1b:51:
                    50:37:44:94:e6:c4:15:eb:45:31:f1:b3:ec:0f:b3:
                    a9:0c:f8:1c:47:c7:51:00:05:ef:ee:b0:3d:9f:7e:
                    07:a7:38:e8:83:4c:3d:db:34:b6:24:0c:90:57:c0:
                    f9:d0:64:14:8a:93:47:9b:41:f5:a3:14:1d:9e:18:
                    5d:d5:d8:66:af:f5:f3:c8:2f:bc:a7:02:a7:ef:dc:
                    f0:0e:c7:47:8d:2e:d6:a8:62:42:93:5b:7c:f5:35:
                    f8:31:10:7b:38:d4:40:24:68:81:13:27:cb:fb:76:
                    0e:d1:99:14:d8:d5:eb:f7:69:64:8f:af:8f:82:bb:
                    24:29:f9:d4:29:1d:ce:e6:14:ba:4c:8b:09:ff:46:
                    ce:8b:6d
                Exponent: 65537 (0x10001)
        X509v3 extensions:
            X509v3 Basic Constraints: 
                CA:FALSE
            Netscape Cert Type: 
                SSL Client, SSL Server, S/MIME
            X509v3 Extended Key Usage: 
                TLS Web Server Authentication, E-mail Protection, TLS Web Client Authentication
            X509v3 Key Usage: 
                Digital Signature, Non Repudiation, Key Encipherment
            X509v3 Subject Key Identifier: 
                CB:11:B7:01:5F:86:55:4F:45:5E:AB:27:69:BE:E1:3C:89:7A:55:62
            X509v3 CRL Distribution Points: 
                URI:http://ca.mit.edu/ca/mitserver.crl

    Signature Algorithm: sha1WithRSAEncryption
        cc:f1:9d:ae:e8:e7:65:6c:3d:82:67:a9:20:32:14:52:a6:45:
        3f:f9:b4:1f:7b:e5:d2:d6:52:55:16:87:5c:29:b1:80:7e:57:
        da:a4:1d:04:ca:20:02:da:83:48:05:29:22:4b:65:7e:c1:d4:
        3a:d6:53:43:65:b9:15:be:ff:99:07:66:26:b4:56:b9:7a:ac:
        5b:41:3e:13:8a:25:c3:90:8a:ce:05:42:66:88:3d:a1:bf:d7:
        c4:1d:0e:82:ed:0d:28:18:ec:d7:a6:1c:bf:4c:73:19:3c:b1:
        5e:56:a0:33:a0:61:4b:3c:31:ea:58:79:af:8a:33:80:99:7f:
        05:a1
-----BEGIN CERTIFICATE-----
MIIFCDCCBHGgAwIBAgIRAIyxDH6Ugq9dM0CILIJCE7gwDQYJKoZIhvcNAQEFBQAw
ezELMAkGA1UEBhMCVVMxFjAUBgNVBAgTDU1hc3NhY2h1c2V0dHMxLjAsBgNVBAoT
JU1hc3NhY2h1c2V0dHMgSW5zdGl0dXRlIG9mIFRlY2hub2xvZ3kxJDAiBgNVBAsT
G01JVCBDZXJ0aWZpY2F0aW9uIEF1dGhvcml0eTAeFw0xMTEwMTMxNjAwMDBaFw0x
MjEwMTExNjAwMDBaMIHWMQswCQYDVQQGEwJVUzEWMBQGA1UECBMNTWFzc2FjaHVz
ZXR0czESMBAGA1UEBxMJQ2FtYnJpZGdlMS4wLAYDVQQKEyVNYXNzYWNodXNldHRz
IEluc3RpdHV0ZSBvZiBUZWNobm9sb2d5MSwwKgYDVQQLEyNzY3JpcHRzLm1pdC5l
ZHUgd2ViIGhvc3Rpbmcgc2VydmljZTEdMBsGA1UEAxMUdHdlbnR5dHdlbHZlLm1p
dC5lZHUxHjAcBgkqhkiG9w0BCQEWD3NjcmlwdHNAbWl0LmVkdTCCAiIwDQYJKoZI
hvcNAQEBBQADggIPADCCAgoCggIBAL+j8nuYzBanV+aShTRW8eNig55qTzWd8M+J
h3Pjk/e3AVc4bun8WU0k66cXR8osUQ5FyLdoyQ4yJuCR0wZcjHwObJkMskYFD03x
sMdeNQZi/irWDxsstQIkTMMGceyUyh2qr365LcBVS8y8UT12aFvT7TXQA7obbPOg
2NPca0SwXgFR0wLMStpSEt41MWkWWkiLD86tTeTVixE2f4cc/YTaQy6HL0FwrK3f
VMDt9iFR+sUG8BvrobC/TRxCNIrVb/clZnOPYMTXjTOR9EY6lwlZAf/DZJRASDBo
8G4DJnTCobPXy5T8blOKKp79sU/EdFYlYx+qvZUleJxFRhsMIXHrhJTQsvHaUvbR
f2MdCCNSX8L5TaykROWaVHD8yfzU1LcddZUA478+TPNDw5bHCSopRRLSMdZ5TIrn
VCcixoCuhyNW8Y1Jm8j67TNbX1Z2yA9+hRRpxEgxBzmlNIHyaxVQIvu7LK1LhOpV
ZPfeVp3QttB9HhtRUDdElObEFetFMfGz7A+zqQz4HEfHUQAF7+6wPZ9+B6c46INM
Pds0tiQMkFfA+dBkFIqTR5tB9aMUHZ4YXdXYZq/188gvvKcCp+/c8A7HR40u1qhi
QpNbfPU1+DEQezjUQCRogRMny/t2DtGZFNjV6/dpZI+vj4K7JCn51CkdzuYUukyL
Cf9GzottAgMBAAGjgaswgagwCQYDVR0TBAIwADARBglghkgBhvhCAQEEBAMCBeAw
JwYDVR0lBCAwHgYIKwYBBQUHAwEGCCsGAQUFBwMEBggrBgEFBQcDAjALBgNVHQ8E
BAMCBeAwHQYDVR0OBBYEFMsRtwFfhlVPRV6rJ2m+4TyJelViMDMGA1UdHwQsMCow
KKAmoCSGImh0dHA6Ly9jYS5taXQuZWR1L2NhL21pdHNlcnZlci5jcmwwDQYJKoZI
hvcNAQEFBQADgYEAzPGdrujnZWw9gmepIDIUUqZFP/m0H3vl0tZSVRaHXCmxgH5X
2qQdBMogAtqDSAUpIktlfsHUOtZTQ2W5Fb7/mQdmJrRWuXqsW0E+E4olw5CKzgVC
Zog9ob/XxB0Ogu0NKBjs16Ycv0xzGTyxXlagM6BhSzwx6lh5r4ozgJl/BaE=
-----END CERTIFICATE-----

