From mitcert@MIT.EDU Tue Nov 18 11:45:51 2008
Date: Tue, 18 Nov 2008 11:44:07 -0500 (EST)
From: mitcert@MIT.EDU
To: geofft@mit.edu
Subject: CSR for scripts virtual host: twentytwelve.mit.edu  [help.mit.edu #754405]

Certificate:
    Data:
        Version: 3 (0x2)
        Serial Number: 3119 (0xc2f)
        Signature Algorithm: sha1WithRSAEncryption
        Issuer: C=US, ST=Massachusetts, O=Massachusetts Institute of Technology, OU=MIT Certification Authority
        Validity
            Not Before: Nov 16 17:00:00 2008 GMT
            Not After : Nov 16 17:00:00 2009 GMT
        Subject: C=US, ST=Massachusetts, L=Cambridge, O=Massachusetts Institute of Technology, OU=Student Information Processing Board, CN=twentytwelve.mit.edu/Email=scripts@mit.edu
        Subject Public Key Info:
            Public Key Algorithm: rsaEncryption
            RSA Public Key: (1024 bit)
                Modulus (1024 bit):
                    00:b5:3e:21:4d:c1:89:6b:01:8c:47:80:fe:b3:37:
                    27:76:f8:52:41:e6:a2:3d:4b:76:78:e5:f2:66:3c:
                    0f:b1:ad:fb:97:8f:2e:a2:b6:53:d3:b6:0e:e2:66:
                    f9:b9:0b:b7:ce:b4:d5:f5:1c:1f:6f:22:7d:48:f5:
                    6d:f0:16:cd:8e:48:79:d1:14:4a:14:2f:2f:f8:c4:
                    bd:1d:87:cf:7d:8b:5c:77:ad:58:24:b0:0e:a1:6d:
                    d6:0a:c7:d8:bc:2f:67:65:c8:5d:d8:d8:31:c2:67:
                    4b:4a:f4:a1:a5:54:82:af:cb:34:08:2a:04:7f:8e:
                    7c:4c:b7:db:dc:6a:8a:5d:81
                Exponent: 65537 (0x10001)
        X509v3 extensions:
            X509v3 Basic Constraints: 
                CA:FALSE
            Netscape Cert Type: 
                SSL Client, SSL Server, S/MIME
            X509v3 Extended Key Usage: 
                TLS Web Server Authentication, E-mail Protection, TLS Web Client Authentication
            X509v3 Key Usage: 
                Digital Signature, Non Repudiation, Key Encipherment
            X509v3 Subject Key Identifier: 
                54:11:7C:09:55:44:1C:94:45:A9:A2:76:46:2B:2C:24:26:6A:44:E8
    Signature Algorithm: sha1WithRSAEncryption
        09:b6:d9:af:5e:67:43:ba:24:74:24:7b:71:a8:c9:8b:25:a7:
        b5:1d:8a:d0:96:5d:1a:13:05:b7:e8:d2:0e:98:fa:06:00:92:
        e1:c6:69:89:1f:27:3e:af:97:17:f0:47:22:a5:72:70:a2:1d:
        0a:d4:ff:5e:ea:d5:dd:15:d0:70:0e:66:17:91:85:75:f5:19:
        fa:73:64:f6:39:b3:d5:0d:c1:00:f8:96:69:78:1e:68:d1:c6:
        fb:16:12:24:bd:bd:37:7c:cb:87:f7:bc:fe:bc:c3:78:1b:ae:
        3d:ad:3d:4c:af:2d:8d:30:94:30:8a:3f:fc:36:59:f4:f2:fa:
        e6:6f
-----BEGIN CERTIFICATE-----
MIIDPzCCAqigAwIBAgICDC8wDQYJKoZIhvcNAQEFBQAwezELMAkGA1UEBhMCVVMx
FjAUBgNVBAgTDU1hc3NhY2h1c2V0dHMxLjAsBgNVBAoTJU1hc3NhY2h1c2V0dHMg
SW5zdGl0dXRlIG9mIFRlY2hub2xvZ3kxJDAiBgNVBAsTG01JVCBDZXJ0aWZpY2F0
aW9uIEF1dGhvcml0eTAeFw0wODExMTYxNzAwMDBaFw0wOTExMTYxNzAwMDBaMIHX
MQswCQYDVQQGEwJVUzEWMBQGA1UECBMNTWFzc2FjaHVzZXR0czESMBAGA1UEBxMJ
Q2FtYnJpZGdlMS4wLAYDVQQKEyVNYXNzYWNodXNldHRzIEluc3RpdHV0ZSBvZiBU
ZWNobm9sb2d5MS0wKwYDVQQLEyRTdHVkZW50IEluZm9ybWF0aW9uIFByb2Nlc3Np
bmcgQm9hcmQxHTAbBgNVBAMTFHR3ZW50eXR3ZWx2ZS5taXQuZWR1MR4wHAYJKoZI
hvcNAQkBFg9zY3JpcHRzQG1pdC5lZHUwgZ8wDQYJKoZIhvcNAQEBBQADgY0AMIGJ
AoGBALU+IU3BiWsBjEeA/rM3J3b4UkHmoj1Ldnjl8mY8D7Gt+5ePLqK2U9O2DuJm
+bkLt8601fUcH28ifUj1bfAWzY5IedEUShQvL/jEvR2Hz32LXHetWCSwDqFt1grH
2LwvZ2XIXdjYMcJnS0r0oaVUgq/LNAgqBH+OfEy329xqil2BAgMBAAGjdTBzMAkG
A1UdEwQCMAAwEQYJYIZIAYb4QgEBBAQDAgXgMCcGA1UdJQQgMB4GCCsGAQUFBwMB
BggrBgEFBQcDBAYIKwYBBQUHAwIwCwYDVR0PBAQDAgXgMB0GA1UdDgQWBBRUEXwJ
VUQclEWponZGKywkJmpE6DANBgkqhkiG9w0BAQUFAAOBgQAJttmvXmdDuiR0JHtx
qMmLJae1HYrQll0aEwW36NIOmPoGAJLhxmmJHyc+r5cX8EcipXJwoh0K1P9e6tXd
FdBwDmYXkYV19Rn6c2T2ObPVDcEA+JZpeB5o0cb7FhIkvb03fMuH97z+vMN4G649
rT1Mry2NMJQwij/8Nln08vrmbw==
-----END CERTIFICATE-----

