From mitcert@MIT.EDU Sun Nov  8 17:24:32 2009
Date: Sun, 8 Nov 2009 17:23:47 -0500 (EST)
From: mitcert@MIT.EDU
To: scripts-root@mit.edu
Subject: certificate renewal request for scripts vhost twentytwelve.mit.edu  [help.mit.edu #1068237]

Certificate:
    Data:
        Version: 3 (0x2)
        Serial Number:
            46:b1:d7:1c:de:7a:b2:d9:65:04:87:31:f7:d3:f3:fb
        Signature Algorithm: sha1WithRSAEncryption
        Issuer: C=US, ST=Massachusetts, O=Massachusetts Institute of Technology, OU=MIT Certification Authority
        Validity
            Not Before: Nov  7 17:00:00 2009 GMT
            Not After : Nov  8 17:00:00 2010 GMT
        Subject: C=US, ST=Massachusetts, L=Cambridge, O=Massachusetts Institute of Technology, OU=scripts.mit.edu web hosting service, CN=twentytwelve.mit.edu/emailAddress=scripts@mit.edu
        Subject Public Key Info:
            Public Key Algorithm: rsaEncryption
            RSA Public Key: (1024 bit)
                Modulus (1024 bit):
                    00:b5:3e:21:4d:c1:89:6b:01:8c:47:80:fe:b3:37:
                    27:76:f8:52:41:e6:a2:3d:4b:76:78:e5:f2:66:3c:
                    0f:b1:ad:fb:97:8f:2e:a2:b6:53:d3:b6:0e:e2:66:
                    f9:b9:0b:b7:ce:b4:d5:f5:1c:1f:6f:22:7d:48:f5:
                    6d:f0:16:cd:8e:48:79:d1:14:4a:14:2f:2f:f8:c4:
                    bd:1d:87:cf:7d:8b:5c:77:ad:58:24:b0:0e:a1:6d:
                    d6:0a:c7:d8:bc:2f:67:65:c8:5d:d8:d8:31:c2:67:
                    4b:4a:f4:a1:a5:54:82:af:cb:34:08:2a:04:7f:8e:
                    7c:4c:b7:db:dc:6a:8a:5d:81
                Exponent: 65537 (0x10001)
        X509v3 extensions:
            X509v3 Basic Constraints: 
                CA:FALSE
            Netscape Cert Type: 
                SSL Client, SSL Server, S/MIME
            X509v3 Extended Key Usage: 
                TLS Web Server Authentication, E-mail Protection, TLS Web Client Authentication
            X509v3 Key Usage: 
                Digital Signature, Non Repudiation, Key Encipherment
            X509v3 Subject Key Identifier: 
                54:11:7C:09:55:44:1C:94:45:A9:A2:76:46:2B:2C:24:26:6A:44:E8
            X509v3 CRL Distribution Points: 
                URI:http://ca.mit.edu/ca/mitserver.crl

    Signature Algorithm: sha1WithRSAEncryption
        6b:e5:07:a1:28:1d:7c:6e:f5:28:3d:e6:f9:db:38:97:f5:be:
        44:19:39:36:23:1b:60:13:01:11:80:4b:cb:fe:56:ce:43:b1:
        9c:53:e0:8a:43:0e:8d:3c:c9:46:75:fd:7b:c9:10:61:cb:3e:
        d5:40:5a:57:f5:c2:21:00:9e:1e:c6:4c:eb:18:5b:0f:59:6d:
        a4:a3:69:70:77:7f:c0:48:0a:15:d5:f3:d3:61:04:dd:b1:7c:
        68:50:4c:c9:82:c1:b6:6f:5c:f5:e9:cf:d9:8f:83:56:49:16:
        e3:10:d5:99:5c:24:ec:d7:3a:7b:f4:eb:ec:75:85:91:e1:36:
        6d:b2
-----BEGIN CERTIFICATE-----
MIIDgzCCAuygAwIBAgIQRrHXHN56stllBIcx99Pz+zANBgkqhkiG9w0BAQUFADB7
MQswCQYDVQQGEwJVUzEWMBQGA1UECBMNTWFzc2FjaHVzZXR0czEuMCwGA1UEChMl
TWFzc2FjaHVzZXR0cyBJbnN0aXR1dGUgb2YgVGVjaG5vbG9neTEkMCIGA1UECxMb
TUlUIENlcnRpZmljYXRpb24gQXV0aG9yaXR5MB4XDTA5MTEwNzE3MDAwMFoXDTEw
MTEwODE3MDAwMFowgdYxCzAJBgNVBAYTAlVTMRYwFAYDVQQIEw1NYXNzYWNodXNl
dHRzMRIwEAYDVQQHEwlDYW1icmlkZ2UxLjAsBgNVBAoTJU1hc3NhY2h1c2V0dHMg
SW5zdGl0dXRlIG9mIFRlY2hub2xvZ3kxLDAqBgNVBAsTI3NjcmlwdHMubWl0LmVk
dSB3ZWIgaG9zdGluZyBzZXJ2aWNlMR0wGwYDVQQDExR0d2VudHl0d2VsdmUubWl0
LmVkdTEeMBwGCSqGSIb3DQEJARYPc2NyaXB0c0BtaXQuZWR1MIGfMA0GCSqGSIb3
DQEBAQUAA4GNADCBiQKBgQC1PiFNwYlrAYxHgP6zNyd2+FJB5qI9S3Z45fJmPA+x
rfuXjy6itlPTtg7iZvm5C7fOtNX1HB9vIn1I9W3wFs2OSHnRFEoULy/4xL0dh899
i1x3rVgksA6hbdYKx9i8L2dlyF3Y2DHCZ0tK9KGlVIKvyzQIKgR/jnxMt9vcaopd
gQIDAQABo4GrMIGoMAkGA1UdEwQCMAAwEQYJYIZIAYb4QgEBBAQDAgXgMCcGA1Ud
JQQgMB4GCCsGAQUFBwMBBggrBgEFBQcDBAYIKwYBBQUHAwIwCwYDVR0PBAQDAgXg
MB0GA1UdDgQWBBRUEXwJVUQclEWponZGKywkJmpE6DAzBgNVHR8ELDAqMCigJqAk
hiJodHRwOi8vY2EubWl0LmVkdS9jYS9taXRzZXJ2ZXIuY3JsMA0GCSqGSIb3DQEB
BQUAA4GBAGvlB6EoHXxu9Sg95vnbOJf1vkQZOTYjG2ATARGAS8v+Vs5DsZxT4IpD
Do08yUZ1/XvJEGHLPtVAWlf1wiEAnh7GTOsYWw9ZbaSjaXB3f8BIChXV89NhBN2x
fGhQTMmCwbZvXPXpz9mPg1ZJFuMQ1ZlcJOzXOnv06+x1hZHhNm2y
-----END CERTIFICATE-----

