From mitcert@MIT.EDU Thu Oct 28 09:36:41 2010
Date: Thu, 28 Oct 2010 09:36:39 -0400 (EDT)
From: mitcert@MIT.EDU
To: geofft@mit.edu
Subject: CSR for twentytwelve.mit.edu  [help.mit.edu #1385005]

Certificate:
    Data:
        Version: 3 (0x2)
        Serial Number:
            77:93:4d:e9:5a:50:d8:b8:73:2a:f6:bd:d5:00:4a:9f
        Signature Algorithm: sha1WithRSAEncryption
        Issuer: C=US, ST=Massachusetts, O=Massachusetts Institute of Technology, OU=MIT Certification Authority
        Validity
            Not Before: Oct 26 16:00:00 2010 GMT
            Not After : Oct 27 16:00:00 2011 GMT
        Subject: C=US, ST=Massachusetts, L=Cambridge, O=Massachusetts Institute of Technology, OU=Scripts.mit.edu Web Hosting Service, CN=twentytwelve.mit.edu/emailAddress=scripts@mit.edu
        Subject Public Key Info:
            Public Key Algorithm: rsaEncryption
            RSA Public Key: (1024 bit)
                Modulus (1024 bit):
                    00:b5:3e:21:4d:c1:89:6b:01:8c:47:80:fe:b3:37:
                    27:76:f8:52:41:e6:a2:3d:4b:76:78:e5:f2:66:3c:
                    0f:b1:ad:fb:97:8f:2e:a2:b6:53:d3:b6:0e:e2:66:
                    f9:b9:0b:b7:ce:b4:d5:f5:1c:1f:6f:22:7d:48:f5:
                    6d:f0:16:cd:8e:48:79:d1:14:4a:14:2f:2f:f8:c4:
                    bd:1d:87:cf:7d:8b:5c:77:ad:58:24:b0:0e:a1:6d:
                    d6:0a:c7:d8:bc:2f:67:65:c8:5d:d8:d8:31:c2:67:
                    4b:4a:f4:a1:a5:54:82:af:cb:34:08:2a:04:7f:8e:
                    7c:4c:b7:db:dc:6a:8a:5d:81
                Exponent: 65537 (0x10001)
        X509v3 extensions:
            X509v3 Basic Constraints: 
                CA:FALSE
            Netscape Cert Type: 
                SSL Client, SSL Server, S/MIME
            X509v3 Extended Key Usage: 
                TLS Web Server Authentication, E-mail Protection, TLS Web Client Authentication
            X509v3 Key Usage: 
                Digital Signature, Non Repudiation, Key Encipherment
            X509v3 Subject Key Identifier: 
                54:11:7C:09:55:44:1C:94:45:A9:A2:76:46:2B:2C:24:26:6A:44:E8
            X509v3 CRL Distribution Points: 
                URI:http://ca.mit.edu/ca/mitserver.crl

    Signature Algorithm: sha1WithRSAEncryption
        2b:12:5c:d2:c5:09:65:f7:e1:68:95:40:47:3c:f0:89:60:25:
        d3:18:11:60:26:53:af:60:ca:6b:ea:79:75:cb:8e:eb:c9:61:
        91:41:91:b5:52:62:d4:f5:b8:4c:d5:48:3d:3c:93:0a:09:2f:
        1c:26:80:32:53:74:cc:01:37:f0:91:ce:ab:d0:54:9a:26:d0:
        aa:22:30:60:c3:82:3a:08:02:8e:ce:4a:45:f8:2e:5d:aa:58:
        cb:ff:79:93:08:97:30:95:bc:1a:e6:cc:c2:83:b8:ce:e7:d2:
        ac:bf:19:02:cd:af:9b:23:ad:92:3b:7c:85:34:f2:24:2a:8e:
        e6:68
-----BEGIN CERTIFICATE-----
MIIDgzCCAuygAwIBAgIQd5NN6VpQ2LhzKva91QBKnzANBgkqhkiG9w0BAQUFADB7
MQswCQYDVQQGEwJVUzEWMBQGA1UECBMNTWFzc2FjaHVzZXR0czEuMCwGA1UEChMl
TWFzc2FjaHVzZXR0cyBJbnN0aXR1dGUgb2YgVGVjaG5vbG9neTEkMCIGA1UECxMb
TUlUIENlcnRpZmljYXRpb24gQXV0aG9yaXR5MB4XDTEwMTAyNjE2MDAwMFoXDTEx
MTAyNzE2MDAwMFowgdYxCzAJBgNVBAYTAlVTMRYwFAYDVQQIEw1NYXNzYWNodXNl
dHRzMRIwEAYDVQQHEwlDYW1icmlkZ2UxLjAsBgNVBAoTJU1hc3NhY2h1c2V0dHMg
SW5zdGl0dXRlIG9mIFRlY2hub2xvZ3kxLDAqBgNVBAsTI1NjcmlwdHMubWl0LmVk
dSBXZWIgSG9zdGluZyBTZXJ2aWNlMR0wGwYDVQQDExR0d2VudHl0d2VsdmUubWl0
LmVkdTEeMBwGCSqGSIb3DQEJARYPc2NyaXB0c0BtaXQuZWR1MIGfMA0GCSqGSIb3
DQEBAQUAA4GNADCBiQKBgQC1PiFNwYlrAYxHgP6zNyd2+FJB5qI9S3Z45fJmPA+x
rfuXjy6itlPTtg7iZvm5C7fOtNX1HB9vIn1I9W3wFs2OSHnRFEoULy/4xL0dh899
i1x3rVgksA6hbdYKx9i8L2dlyF3Y2DHCZ0tK9KGlVIKvyzQIKgR/jnxMt9vcaopd
gQIDAQABo4GrMIGoMAkGA1UdEwQCMAAwEQYJYIZIAYb4QgEBBAQDAgXgMCcGA1Ud
JQQgMB4GCCsGAQUFBwMBBggrBgEFBQcDBAYIKwYBBQUHAwIwCwYDVR0PBAQDAgXg
MB0GA1UdDgQWBBRUEXwJVUQclEWponZGKywkJmpE6DAzBgNVHR8ELDAqMCigJqAk
hiJodHRwOi8vY2EubWl0LmVkdS9jYS9taXRzZXJ2ZXIuY3JsMA0GCSqGSIb3DQEB
BQUAA4GBACsSXNLFCWX34WiVQEc88IlgJdMYEWAmU69gymvqeXXLjuvJYZFBkbVS
YtT1uEzVSD08kwoJLxwmgDJTdMwBN/CRzqvQVJom0KoiMGDDgjoIAo7OSkX4Ll2q
WMv/eZMIlzCVvBrmzMKDuM7n0qy/GQLNr5sjrZI7fIU08iQqjuZo
-----END CERTIFICATE-----

