From mitcert@MIT.EDU Thu Oct 28 09:38:23 2010
Date: Thu, 28 Oct 2010 09:38:22 -0400 (EDT)
From: mitcert@MIT.EDU
To: geofft@mit.edu
Subject: CSR for ua.mit.edu  [help.mit.edu #1385006]

Certificate:
    Data:
        Version: 3 (0x2)
        Serial Number:
            c4:80:e8:8d:c3:09:9f:dd:cb:45:ae:c6:f3:86:9a:01
        Signature Algorithm: sha1WithRSAEncryption
        Issuer: C=US, ST=Massachusetts, O=Massachusetts Institute of Technology, OU=MIT Certification Authority
        Validity
            Not Before: Oct 26 16:00:00 2010 GMT
            Not After : Oct 27 16:00:00 2011 GMT
        Subject: C=US, ST=Massachusetts, L=Cambridge, O=Massachusetts Institute of Technology, OU=Scripts.mit.edu Web Hosting Service, CN=ua.mit.edu/emailAddress=scripts@mit.edu
        Subject Public Key Info:
            Public Key Algorithm: rsaEncryption
            RSA Public Key: (1024 bit)
                Modulus (1024 bit):
                    00:b5:3e:21:4d:c1:89:6b:01:8c:47:80:fe:b3:37:
                    27:76:f8:52:41:e6:a2:3d:4b:76:78:e5:f2:66:3c:
                    0f:b1:ad:fb:97:8f:2e:a2:b6:53:d3:b6:0e:e2:66:
                    f9:b9:0b:b7:ce:b4:d5:f5:1c:1f:6f:22:7d:48:f5:
                    6d:f0:16:cd:8e:48:79:d1:14:4a:14:2f:2f:f8:c4:
                    bd:1d:87:cf:7d:8b:5c:77:ad:58:24:b0:0e:a1:6d:
                    d6:0a:c7:d8:bc:2f:67:65:c8:5d:d8:d8:31:c2:67:
                    4b:4a:f4:a1:a5:54:82:af:cb:34:08:2a:04:7f:8e:
                    7c:4c:b7:db:dc:6a:8a:5d:81
                Exponent: 65537 (0x10001)
        X509v3 extensions:
            X509v3 Basic Constraints: 
                CA:FALSE
            Netscape Cert Type: 
                SSL Client, SSL Server, S/MIME
            X509v3 Extended Key Usage: 
                TLS Web Server Authentication, E-mail Protection, TLS Web Client Authentication
            X509v3 Key Usage: 
                Digital Signature, Non Repudiation, Key Encipherment
            X509v3 Subject Key Identifier: 
                54:11:7C:09:55:44:1C:94:45:A9:A2:76:46:2B:2C:24:26:6A:44:E8
            X509v3 CRL Distribution Points: 
                URI:http://ca.mit.edu/ca/mitserver.crl

    Signature Algorithm: sha1WithRSAEncryption
        9f:22:39:a2:fe:82:17:d5:48:e2:f2:62:37:42:80:8a:39:5b:
        3d:73:b1:2a:86:35:1c:ff:b2:82:c8:48:74:de:14:fe:68:3e:
        93:48:55:2b:17:d0:b5:cb:0b:f9:51:a4:8b:57:4b:6b:b7:51:
        c5:75:b2:3f:b1:1b:64:f0:25:17:39:a4:83:93:c2:f9:a7:e8:
        97:9c:48:74:57:22:38:2e:fd:75:48:dc:8e:06:0c:1c:48:02:
        ad:b3:06:8d:2f:5c:f1:4f:e7:70:a3:79:ee:e0:93:d0:a1:2d:
        cd:15:69:c1:00:51:d2:9a:02:c5:f6:98:55:c3:8d:d9:ee:96:
        47:89
-----BEGIN CERTIFICATE-----
MIIDejCCAuOgAwIBAgIRAMSA6I3DCZ/dy0WuxvOGmgEwDQYJKoZIhvcNAQEFBQAw
ezELMAkGA1UEBhMCVVMxFjAUBgNVBAgTDU1hc3NhY2h1c2V0dHMxLjAsBgNVBAoT
JU1hc3NhY2h1c2V0dHMgSW5zdGl0dXRlIG9mIFRlY2hub2xvZ3kxJDAiBgNVBAsT
G01JVCBDZXJ0aWZpY2F0aW9uIEF1dGhvcml0eTAeFw0xMDEwMjYxNjAwMDBaFw0x
MTEwMjcxNjAwMDBaMIHMMQswCQYDVQQGEwJVUzEWMBQGA1UECBMNTWFzc2FjaHVz
ZXR0czESMBAGA1UEBxMJQ2FtYnJpZGdlMS4wLAYDVQQKEyVNYXNzYWNodXNldHRz
IEluc3RpdHV0ZSBvZiBUZWNobm9sb2d5MSwwKgYDVQQLEyNTY3JpcHRzLm1pdC5l
ZHUgV2ViIEhvc3RpbmcgU2VydmljZTETMBEGA1UEAxMKdWEubWl0LmVkdTEeMBwG
CSqGSIb3DQEJARYPc2NyaXB0c0BtaXQuZWR1MIGfMA0GCSqGSIb3DQEBAQUAA4GN
ADCBiQKBgQC1PiFNwYlrAYxHgP6zNyd2+FJB5qI9S3Z45fJmPA+xrfuXjy6itlPT
tg7iZvm5C7fOtNX1HB9vIn1I9W3wFs2OSHnRFEoULy/4xL0dh899i1x3rVgksA6h
bdYKx9i8L2dlyF3Y2DHCZ0tK9KGlVIKvyzQIKgR/jnxMt9vcaopdgQIDAQABo4Gr
MIGoMAkGA1UdEwQCMAAwEQYJYIZIAYb4QgEBBAQDAgXgMCcGA1UdJQQgMB4GCCsG
AQUFBwMBBggrBgEFBQcDBAYIKwYBBQUHAwIwCwYDVR0PBAQDAgXgMB0GA1UdDgQW
BBRUEXwJVUQclEWponZGKywkJmpE6DAzBgNVHR8ELDAqMCigJqAkhiJodHRwOi8v
Y2EubWl0LmVkdS9jYS9taXRzZXJ2ZXIuY3JsMA0GCSqGSIb3DQEBBQUAA4GBAJ8i
OaL+ghfVSOLyYjdCgIo5Wz1zsSqGNRz/soLISHTeFP5oPpNIVSsX0LXLC/lRpItX
S2u3UcV1sj+xG2TwJRc5pIOTwvmn6JecSHRXIjgu/XVI3I4GDBxIAq2zBo0vXPFP
53Cjee7gk9ChLc0VacEAUdKaAsX2mFXDjdnulkeJ
-----END CERTIFICATE-----

