From mitcert@MIT.EDU Sun Nov  8 17:27:52 2009
Date: Sun, 8 Nov 2009 17:23:00 -0500 (EST)
From: mitcert@MIT.EDU
To: scripts-root@mit.edu
Subject: certificate renewal request for scripts vhost ua.mit.edu  [help.mit.edu #1068238]

Certificate:
    Data:
        Version: 3 (0x2)
        Serial Number:
            15:40:47:e6:2a:ff:6d:01:80:c7:08:ba:97:c3:fa:58
        Signature Algorithm: sha1WithRSAEncryption
        Issuer: C=US, ST=Massachusetts, O=Massachusetts Institute of Technology, OU=MIT Certification Authority
        Validity
            Not Before: Nov  7 17:00:00 2009 GMT
            Not After : Nov  8 17:00:00 2010 GMT
        Subject: C=US, ST=Massachusetts, L=Cambridge, O=Massachusetts Institute of Technology, OU=scripts.mit.edu web hosting service, CN=ua.mit.edu/emailAddress=scripts@mit.edu
        Subject Public Key Info:
            Public Key Algorithm: rsaEncryption
            RSA Public Key: (1024 bit)
                Modulus (1024 bit):
                    00:b5:3e:21:4d:c1:89:6b:01:8c:47:80:fe:b3:37:
                    27:76:f8:52:41:e6:a2:3d:4b:76:78:e5:f2:66:3c:
                    0f:b1:ad:fb:97:8f:2e:a2:b6:53:d3:b6:0e:e2:66:
                    f9:b9:0b:b7:ce:b4:d5:f5:1c:1f:6f:22:7d:48:f5:
                    6d:f0:16:cd:8e:48:79:d1:14:4a:14:2f:2f:f8:c4:
                    bd:1d:87:cf:7d:8b:5c:77:ad:58:24:b0:0e:a1:6d:
                    d6:0a:c7:d8:bc:2f:67:65:c8:5d:d8:d8:31:c2:67:
                    4b:4a:f4:a1:a5:54:82:af:cb:34:08:2a:04:7f:8e:
                    7c:4c:b7:db:dc:6a:8a:5d:81
                Exponent: 65537 (0x10001)
        X509v3 extensions:
            X509v3 Basic Constraints: 
                CA:FALSE
            Netscape Cert Type: 
                SSL Client, SSL Server, S/MIME
            X509v3 Extended Key Usage: 
                TLS Web Server Authentication, E-mail Protection, TLS Web Client Authentication
            X509v3 Key Usage: 
                Digital Signature, Non Repudiation, Key Encipherment
            X509v3 Subject Key Identifier: 
                54:11:7C:09:55:44:1C:94:45:A9:A2:76:46:2B:2C:24:26:6A:44:E8
            X509v3 CRL Distribution Points: 
                URI:http://ca.mit.edu/ca/mitserver.crl

    Signature Algorithm: sha1WithRSAEncryption
        8e:2e:07:3a:e9:50:ca:d0:90:dd:16:71:2d:9c:c6:88:19:5f:
        1c:7f:3c:e2:c7:56:c4:57:f2:4c:8f:4e:6a:e9:98:5b:96:3c:
        00:16:33:7c:54:68:11:56:21:fb:29:6e:56:c1:a7:c3:57:6a:
        57:62:16:8e:6f:5b:94:55:e1:b2:18:e8:77:2a:fd:e0:0c:7d:
        18:ee:55:e2:50:f6:39:ad:0a:a9:a1:0f:6a:ea:2e:22:43:dc:
        4a:1b:39:31:be:ec:c0:91:06:61:ae:a5:89:97:09:ed:f3:71:
        34:9b:e3:cf:49:c7:1d:93:df:60:2b:82:b1:ae:4d:46:d2:ab:
        78:89
-----BEGIN CERTIFICATE-----
MIIDeTCCAuKgAwIBAgIQFUBH5ir/bQGAxwi6l8P6WDANBgkqhkiG9w0BAQUFADB7
MQswCQYDVQQGEwJVUzEWMBQGA1UECBMNTWFzc2FjaHVzZXR0czEuMCwGA1UEChMl
TWFzc2FjaHVzZXR0cyBJbnN0aXR1dGUgb2YgVGVjaG5vbG9neTEkMCIGA1UECxMb
TUlUIENlcnRpZmljYXRpb24gQXV0aG9yaXR5MB4XDTA5MTEwNzE3MDAwMFoXDTEw
MTEwODE3MDAwMFowgcwxCzAJBgNVBAYTAlVTMRYwFAYDVQQIEw1NYXNzYWNodXNl
dHRzMRIwEAYDVQQHEwlDYW1icmlkZ2UxLjAsBgNVBAoTJU1hc3NhY2h1c2V0dHMg
SW5zdGl0dXRlIG9mIFRlY2hub2xvZ3kxLDAqBgNVBAsTI3NjcmlwdHMubWl0LmVk
dSB3ZWIgaG9zdGluZyBzZXJ2aWNlMRMwEQYDVQQDEwp1YS5taXQuZWR1MR4wHAYJ
KoZIhvcNAQkBFg9zY3JpcHRzQG1pdC5lZHUwgZ8wDQYJKoZIhvcNAQEBBQADgY0A
MIGJAoGBALU+IU3BiWsBjEeA/rM3J3b4UkHmoj1Ldnjl8mY8D7Gt+5ePLqK2U9O2
DuJm+bkLt8601fUcH28ifUj1bfAWzY5IedEUShQvL/jEvR2Hz32LXHetWCSwDqFt
1grH2LwvZ2XIXdjYMcJnS0r0oaVUgq/LNAgqBH+OfEy329xqil2BAgMBAAGjgasw
gagwCQYDVR0TBAIwADARBglghkgBhvhCAQEEBAMCBeAwJwYDVR0lBCAwHgYIKwYB
BQUHAwEGCCsGAQUFBwMEBggrBgEFBQcDAjALBgNVHQ8EBAMCBeAwHQYDVR0OBBYE
FFQRfAlVRByURamidkYrLCQmakToMDMGA1UdHwQsMCowKKAmoCSGImh0dHA6Ly9j
YS5taXQuZWR1L2NhL21pdHNlcnZlci5jcmwwDQYJKoZIhvcNAQEFBQADgYEAji4H
OulQytCQ3RZxLZzGiBlfHH884sdWxFfyTI9OaumYW5Y8ABYzfFRoEVYh+yluVsGn
w1dqV2IWjm9blFXhshjodyr94Ax9GO5V4lD2Oa0KqaEPauouIkPcShs5Mb7swJEG
Ya6liZcJ7fNxNJvjz0nHHZPfYCuCsa5NRtKreIk=
-----END CERTIFICATE-----

