From mitcert@MIT.EDU Tue Nov 18 11:45:39 2008
Date: Tue, 18 Nov 2008 11:42:44 -0500 (EST)
From: mitcert@MIT.EDU
To: geofft@mit.edu
Subject: CSR for scripts virtual host: ua.mit.edu  [help.mit.edu #754406]

Certificate:
    Data:
        Version: 3 (0x2)
        Serial Number: 3118 (0xc2e)
        Signature Algorithm: sha1WithRSAEncryption
        Issuer: C=US, ST=Massachusetts, O=Massachusetts Institute of Technology, OU=MIT Certification Authority
        Validity
            Not Before: Nov 16 17:00:00 2008 GMT
            Not After : Nov 16 17:00:00 2009 GMT
        Subject: C=US, ST=Massachusetts, L=Cambridge, O=Massachusetts Institute of Technology, OU=Student Information Processing Board, CN=ua.mit.edu/Email=scripts@mit.edu
        Subject Public Key Info:
            Public Key Algorithm: rsaEncryption
            RSA Public Key: (1024 bit)
                Modulus (1024 bit):
                    00:b5:3e:21:4d:c1:89:6b:01:8c:47:80:fe:b3:37:
                    27:76:f8:52:41:e6:a2:3d:4b:76:78:e5:f2:66:3c:
                    0f:b1:ad:fb:97:8f:2e:a2:b6:53:d3:b6:0e:e2:66:
                    f9:b9:0b:b7:ce:b4:d5:f5:1c:1f:6f:22:7d:48:f5:
                    6d:f0:16:cd:8e:48:79:d1:14:4a:14:2f:2f:f8:c4:
                    bd:1d:87:cf:7d:8b:5c:77:ad:58:24:b0:0e:a1:6d:
                    d6:0a:c7:d8:bc:2f:67:65:c8:5d:d8:d8:31:c2:67:
                    4b:4a:f4:a1:a5:54:82:af:cb:34:08:2a:04:7f:8e:
                    7c:4c:b7:db:dc:6a:8a:5d:81
                Exponent: 65537 (0x10001)
        X509v3 extensions:
            X509v3 Basic Constraints: 
                CA:FALSE
            Netscape Cert Type: 
                SSL Client, SSL Server, S/MIME
            X509v3 Extended Key Usage: 
                TLS Web Server Authentication, E-mail Protection, TLS Web Client Authentication
            X509v3 Key Usage: 
                Digital Signature, Non Repudiation, Key Encipherment
            X509v3 Subject Key Identifier: 
                54:11:7C:09:55:44:1C:94:45:A9:A2:76:46:2B:2C:24:26:6A:44:E8
    Signature Algorithm: sha1WithRSAEncryption
        a3:fc:60:5d:65:34:5a:78:c3:ec:8e:ea:3a:4e:c7:81:3a:62:
        78:f8:85:78:ea:27:d2:dc:b2:f4:d6:03:23:59:57:20:4a:cb:
        eb:6f:30:ac:50:45:07:16:b5:88:d1:94:01:e5:d8:01:fd:8f:
        e1:d4:9c:cd:70:e4:55:57:83:18:d3:44:c6:6b:d4:d6:d2:15:
        4c:59:97:de:58:f4:f6:2e:17:96:a8:df:5e:7d:64:aa:2a:36:
        85:c5:db:17:d5:89:db:1e:92:0e:5c:53:8b:e2:46:3f:63:56:
        24:83:1b:06:9d:5e:52:3d:63:de:69:dd:89:e1:0d:c1:ee:9e:
        71:c3
-----BEGIN CERTIFICATE-----
MIIDNTCCAp6gAwIBAgICDC4wDQYJKoZIhvcNAQEFBQAwezELMAkGA1UEBhMCVVMx
FjAUBgNVBAgTDU1hc3NhY2h1c2V0dHMxLjAsBgNVBAoTJU1hc3NhY2h1c2V0dHMg
SW5zdGl0dXRlIG9mIFRlY2hub2xvZ3kxJDAiBgNVBAsTG01JVCBDZXJ0aWZpY2F0
aW9uIEF1dGhvcml0eTAeFw0wODExMTYxNzAwMDBaFw0wOTExMTYxNzAwMDBaMIHN
MQswCQYDVQQGEwJVUzEWMBQGA1UECBMNTWFzc2FjaHVzZXR0czESMBAGA1UEBxMJ
Q2FtYnJpZGdlMS4wLAYDVQQKEyVNYXNzYWNodXNldHRzIEluc3RpdHV0ZSBvZiBU
ZWNobm9sb2d5MS0wKwYDVQQLEyRTdHVkZW50IEluZm9ybWF0aW9uIFByb2Nlc3Np
bmcgQm9hcmQxEzARBgNVBAMTCnVhLm1pdC5lZHUxHjAcBgkqhkiG9w0BCQEWD3Nj
cmlwdHNAbWl0LmVkdTCBnzANBgkqhkiG9w0BAQEFAAOBjQAwgYkCgYEAtT4hTcGJ
awGMR4D+szcndvhSQeaiPUt2eOXyZjwPsa37l48uorZT07YO4mb5uQu3zrTV9Rwf
byJ9SPVt8BbNjkh50RRKFC8v+MS9HYfPfYtcd61YJLAOoW3WCsfYvC9nZchd2Ngx
wmdLSvShpVSCr8s0CCoEf458TLfb3GqKXYECAwEAAaN1MHMwCQYDVR0TBAIwADAR
BglghkgBhvhCAQEEBAMCBeAwJwYDVR0lBCAwHgYIKwYBBQUHAwEGCCsGAQUFBwME
BggrBgEFBQcDAjALBgNVHQ8EBAMCBeAwHQYDVR0OBBYEFFQRfAlVRByURamidkYr
LCQmakToMA0GCSqGSIb3DQEBBQUAA4GBAKP8YF1lNFp4w+yO6jpOx4E6Ynj4hXjq
J9LcsvTWAyNZVyBKy+tvMKxQRQcWtYjRlAHl2AH9j+HUnM1w5FVXgxjTRMZr1NbS
FUxZl95Y9PYuF5ao3159ZKoqNoXF2xfVidsekg5cU4viRj9jViSDGwadXlI9Y95p
3YnhDcHunnHD
-----END CERTIFICATE-----

