From mitcert@MIT.EDU Sat Aug 14 09:16:00 2010
Date: Sat, 14 Aug 2010 09:15:59 -0400 (EDT)
From: mitcert@MIT.EDU
To: geofft@mit.edu
Subject: Certificate renewal for wakeup.mit.edu  [help.mit.edu #1313563]

Certificate:
    Data:
        Version: 3 (0x2)
        Serial Number:
            8e:9c:9d:b6:b4:a0:88:bb:11:b2:06:89:35:3c:19
        Signature Algorithm: sha1WithRSAEncryption
        Issuer: C=US, ST=Massachusetts, O=Massachusetts Institute of Technology, OU=MIT Certification Authority
        Validity
            Not Before: Aug 12 16:00:00 2010 GMT
            Not After : Aug 11 16:00:00 2011 GMT
        Subject: C=US, ST=Massachusetts, L=Cambridge, O=Massachusetts Institute of Technology, OU=scripts.mit.edu web hosting service, CN=wakeup.mit.edu/emailAddress=scripts@mit.edu
        Subject Public Key Info:
            Public Key Algorithm: rsaEncryption
            RSA Public Key: (1024 bit)
                Modulus (1024 bit):
                    00:b5:3e:21:4d:c1:89:6b:01:8c:47:80:fe:b3:37:
                    27:76:f8:52:41:e6:a2:3d:4b:76:78:e5:f2:66:3c:
                    0f:b1:ad:fb:97:8f:2e:a2:b6:53:d3:b6:0e:e2:66:
                    f9:b9:0b:b7:ce:b4:d5:f5:1c:1f:6f:22:7d:48:f5:
                    6d:f0:16:cd:8e:48:79:d1:14:4a:14:2f:2f:f8:c4:
                    bd:1d:87:cf:7d:8b:5c:77:ad:58:24:b0:0e:a1:6d:
                    d6:0a:c7:d8:bc:2f:67:65:c8:5d:d8:d8:31:c2:67:
                    4b:4a:f4:a1:a5:54:82:af:cb:34:08:2a:04:7f:8e:
                    7c:4c:b7:db:dc:6a:8a:5d:81
                Exponent: 65537 (0x10001)
        X509v3 extensions:
            X509v3 Basic Constraints: 
                CA:FALSE
            Netscape Cert Type: 
                SSL Client, SSL Server, S/MIME
            X509v3 Extended Key Usage: 
                TLS Web Server Authentication, E-mail Protection, TLS Web Client Authentication
            X509v3 Key Usage: 
                Digital Signature, Non Repudiation, Key Encipherment
            X509v3 Subject Key Identifier: 
                54:11:7C:09:55:44:1C:94:45:A9:A2:76:46:2B:2C:24:26:6A:44:E8
            X509v3 CRL Distribution Points: 
                URI:http://ca.mit.edu/ca/mitserver.crl

    Signature Algorithm: sha1WithRSAEncryption
        85:b1:c3:e5:cf:00:26:44:dc:cc:31:0f:f9:a5:10:6a:ea:e6:
        26:57:8e:61:b3:8e:a9:71:1f:63:f9:9c:60:87:48:bf:ca:a8:
        d8:e8:f3:1d:c1:08:d4:2b:e9:62:3c:14:1c:ab:2e:2e:bd:c5:
        e7:de:33:60:a2:bc:1b:cf:90:e4:ac:c2:68:05:02:e9:c3:8f:
        ab:13:9c:c4:39:81:36:9c:d9:c4:bc:2f:1d:55:89:e4:f5:2b:
        03:b0:df:21:2b:9f:68:39:6c:5b:9e:06:f9:d3:4a:be:b7:51:
        3b:18:97:e1:50:d8:20:7b:cc:4d:57:36:46:b3:71:c6:f2:44:
        25:b6
-----BEGIN CERTIFICATE-----
MIIDfTCCAuagAwIBAgIQAI6cnba0oIi7EbIGiTU8GTANBgkqhkiG9w0BAQUFADB7
MQswCQYDVQQGEwJVUzEWMBQGA1UECBMNTWFzc2FjaHVzZXR0czEuMCwGA1UEChMl
TWFzc2FjaHVzZXR0cyBJbnN0aXR1dGUgb2YgVGVjaG5vbG9neTEkMCIGA1UECxMb
TUlUIENlcnRpZmljYXRpb24gQXV0aG9yaXR5MB4XDTEwMDgxMjE2MDAwMFoXDTEx
MDgxMTE2MDAwMFowgdAxCzAJBgNVBAYTAlVTMRYwFAYDVQQIEw1NYXNzYWNodXNl
dHRzMRIwEAYDVQQHEwlDYW1icmlkZ2UxLjAsBgNVBAoTJU1hc3NhY2h1c2V0dHMg
SW5zdGl0dXRlIG9mIFRlY2hub2xvZ3kxLDAqBgNVBAsTI3NjcmlwdHMubWl0LmVk
dSB3ZWIgaG9zdGluZyBzZXJ2aWNlMRcwFQYDVQQDEw53YWtldXAubWl0LmVkdTEe
MBwGCSqGSIb3DQEJARYPc2NyaXB0c0BtaXQuZWR1MIGfMA0GCSqGSIb3DQEBAQUA
A4GNADCBiQKBgQC1PiFNwYlrAYxHgP6zNyd2+FJB5qI9S3Z45fJmPA+xrfuXjy6i
tlPTtg7iZvm5C7fOtNX1HB9vIn1I9W3wFs2OSHnRFEoULy/4xL0dh899i1x3rVgk
sA6hbdYKx9i8L2dlyF3Y2DHCZ0tK9KGlVIKvyzQIKgR/jnxMt9vcaopdgQIDAQAB
o4GrMIGoMAkGA1UdEwQCMAAwEQYJYIZIAYb4QgEBBAQDAgXgMCcGA1UdJQQgMB4G
CCsGAQUFBwMBBggrBgEFBQcDBAYIKwYBBQUHAwIwCwYDVR0PBAQDAgXgMB0GA1Ud
DgQWBBRUEXwJVUQclEWponZGKywkJmpE6DAzBgNVHR8ELDAqMCigJqAkhiJodHRw
Oi8vY2EubWl0LmVkdS9jYS9taXRzZXJ2ZXIuY3JsMA0GCSqGSIb3DQEBBQUAA4GB
AIWxw+XPACZE3MwxD/mlEGrq5iZXjmGzjqlxH2P5nGCHSL/KqNjo8x3BCNQr6WI8
FByrLi69xefeM2CivBvPkOSswmgFAunDj6sTnMQ5gTac2cS8Lx1VieT1KwOw3yEr
n2g5bFueBvnTSr63UTsYl+FQ2CB7zE1XNkazccbyRCW2
-----END CERTIFICATE-----

