From mitcert@MIT.EDU Thu Aug 28 22:16:26 2008
Date: Thu, 28 Aug 2008 22:15:54 -0400 (EDT)
From: mitcert@MIT.EDU
To: geofft@mit.edu
Subject: CSR for wakeup.mit.edu (scripts vhost)  [help.mit.edu #695368]

Certificate:
    Data:
        Version: 3 (0x2)
        Serial Number: 2944 (0xb80)
        Signature Algorithm: sha1WithRSAEncryption
        Issuer: C=US, ST=Massachusetts, O=Massachusetts Institute of Technology, OU=MIT Certification Authority
        Validity
            Not Before: Aug 27 16:00:00 2008 GMT
            Not After : Aug 27 16:00:00 2009 GMT
        Subject: C=US, ST=Massachusetts, L=Cambridge, O=Massachusetts Institute of Technology, OU=Student Information Processing Board, CN=wakeup.mit.edu/Email=scripts@mit.edu
        Subject Public Key Info:
            Public Key Algorithm: rsaEncryption
            RSA Public Key: (1024 bit)
                Modulus (1024 bit):
                    00:b5:3e:21:4d:c1:89:6b:01:8c:47:80:fe:b3:37:
                    27:76:f8:52:41:e6:a2:3d:4b:76:78:e5:f2:66:3c:
                    0f:b1:ad:fb:97:8f:2e:a2:b6:53:d3:b6:0e:e2:66:
                    f9:b9:0b:b7:ce:b4:d5:f5:1c:1f:6f:22:7d:48:f5:
                    6d:f0:16:cd:8e:48:79:d1:14:4a:14:2f:2f:f8:c4:
                    bd:1d:87:cf:7d:8b:5c:77:ad:58:24:b0:0e:a1:6d:
                    d6:0a:c7:d8:bc:2f:67:65:c8:5d:d8:d8:31:c2:67:
                    4b:4a:f4:a1:a5:54:82:af:cb:34:08:2a:04:7f:8e:
                    7c:4c:b7:db:dc:6a:8a:5d:81
                Exponent: 65537 (0x10001)
        X509v3 extensions:
            X509v3 Basic Constraints: 
                CA:FALSE
            Netscape Cert Type: 
                SSL Client, SSL Server, S/MIME
            X509v3 Extended Key Usage: 
                TLS Web Server Authentication, E-mail Protection, TLS Web Client Authentication
            X509v3 Key Usage: 
                Digital Signature, Non Repudiation, Key Encipherment
            X509v3 Subject Key Identifier: 
                54:11:7C:09:55:44:1C:94:45:A9:A2:76:46:2B:2C:24:26:6A:44:E8
    Signature Algorithm: sha1WithRSAEncryption
        8b:9b:7c:e8:02:8c:f3:02:09:18:93:a8:d1:44:b0:91:3a:d0:
        a8:f6:e0:04:e6:60:ac:7c:99:f4:3b:20:86:a6:87:6b:5d:24:
        e7:f9:bc:ef:02:9e:32:fc:a2:e8:64:ec:26:cc:31:d4:1b:7e:
        36:62:22:34:04:07:13:70:20:1a:53:72:16:5f:a3:3e:ac:86:
        0d:f1:e8:5e:1b:47:92:26:47:44:7e:0f:eb:19:68:f7:23:12:
        f7:cb:f9:10:db:6c:f8:fb:d9:2e:29:cd:59:c8:e0:e1:03:da:
        08:c2:57:8e:ac:10:f4:bc:22:e7:9b:50:8c:71:f6:f4:ab:ff:
        38:f2
-----BEGIN CERTIFICATE-----
MIIDOTCCAqKgAwIBAgICC4AwDQYJKoZIhvcNAQEFBQAwezELMAkGA1UEBhMCVVMx
FjAUBgNVBAgTDU1hc3NhY2h1c2V0dHMxLjAsBgNVBAoTJU1hc3NhY2h1c2V0dHMg
SW5zdGl0dXRlIG9mIFRlY2hub2xvZ3kxJDAiBgNVBAsTG01JVCBDZXJ0aWZpY2F0
aW9uIEF1dGhvcml0eTAeFw0wODA4MjcxNjAwMDBaFw0wOTA4MjcxNjAwMDBaMIHR
MQswCQYDVQQGEwJVUzEWMBQGA1UECBMNTWFzc2FjaHVzZXR0czESMBAGA1UEBxMJ
Q2FtYnJpZGdlMS4wLAYDVQQKEyVNYXNzYWNodXNldHRzIEluc3RpdHV0ZSBvZiBU
ZWNobm9sb2d5MS0wKwYDVQQLEyRTdHVkZW50IEluZm9ybWF0aW9uIFByb2Nlc3Np
bmcgQm9hcmQxFzAVBgNVBAMTDndha2V1cC5taXQuZWR1MR4wHAYJKoZIhvcNAQkB
Fg9zY3JpcHRzQG1pdC5lZHUwgZ8wDQYJKoZIhvcNAQEBBQADgY0AMIGJAoGBALU+
IU3BiWsBjEeA/rM3J3b4UkHmoj1Ldnjl8mY8D7Gt+5ePLqK2U9O2DuJm+bkLt860
1fUcH28ifUj1bfAWzY5IedEUShQvL/jEvR2Hz32LXHetWCSwDqFt1grH2LwvZ2XI
XdjYMcJnS0r0oaVUgq/LNAgqBH+OfEy329xqil2BAgMBAAGjdTBzMAkGA1UdEwQC
MAAwEQYJYIZIAYb4QgEBBAQDAgXgMCcGA1UdJQQgMB4GCCsGAQUFBwMBBggrBgEF
BQcDBAYIKwYBBQUHAwIwCwYDVR0PBAQDAgXgMB0GA1UdDgQWBBRUEXwJVUQclEWp
onZGKywkJmpE6DANBgkqhkiG9w0BAQUFAAOBgQCLm3zoAozzAgkYk6jRRLCROtCo
9uAE5mCsfJn0OyCGpodrXSTn+bzvAp4y/KLoZOwmzDHUG342YiI0BAcTcCAaU3IW
X6M+rIYN8eheG0eSJkdEfg/rGWj3IxL3y/kQ22z4+9kuKc1ZyODhA9oIwleOrBD0
vCLnm1CMcfb0q/848g==
-----END CERTIFICATE-----

