From mitcert@MIT.EDU Thu Aug 28 22:18:03 2008
Date: Thu, 28 Aug 2008 22:17:52 -0400 (EDT)
From: mitcert@MIT.EDU
To: geofft@mit.edu
Subject: CSR for westgate.mit.edu (scripts vhost)  [help.mit.edu #695364]

Certificate:
    Data:
        Version: 3 (0x2)
        Serial Number: 2947 (0xb83)
        Signature Algorithm: sha1WithRSAEncryption
        Issuer: C=US, ST=Massachusetts, O=Massachusetts Institute of Technology, OU=MIT Certification Authority
        Validity
            Not Before: Aug 27 16:00:00 2008 GMT
            Not After : Aug 27 16:00:00 2009 GMT
        Subject: C=US, ST=Massachusetts, L=Cambridge, O=Massachusetts Institute of Technology, OU=Student Information Processing Board, CN=westgate.mit.edu/Email=scripts@mit.edu
        Subject Public Key Info:
            Public Key Algorithm: rsaEncryption
            RSA Public Key: (1024 bit)
                Modulus (1024 bit):
                    00:b5:3e:21:4d:c1:89:6b:01:8c:47:80:fe:b3:37:
                    27:76:f8:52:41:e6:a2:3d:4b:76:78:e5:f2:66:3c:
                    0f:b1:ad:fb:97:8f:2e:a2:b6:53:d3:b6:0e:e2:66:
                    f9:b9:0b:b7:ce:b4:d5:f5:1c:1f:6f:22:7d:48:f5:
                    6d:f0:16:cd:8e:48:79:d1:14:4a:14:2f:2f:f8:c4:
                    bd:1d:87:cf:7d:8b:5c:77:ad:58:24:b0:0e:a1:6d:
                    d6:0a:c7:d8:bc:2f:67:65:c8:5d:d8:d8:31:c2:67:
                    4b:4a:f4:a1:a5:54:82:af:cb:34:08:2a:04:7f:8e:
                    7c:4c:b7:db:dc:6a:8a:5d:81
                Exponent: 65537 (0x10001)
        X509v3 extensions:
            X509v3 Basic Constraints: 
                CA:FALSE
            Netscape Cert Type: 
                SSL Client, SSL Server, S/MIME
            X509v3 Extended Key Usage: 
                TLS Web Server Authentication, E-mail Protection, TLS Web Client Authentication
            X509v3 Key Usage: 
                Digital Signature, Non Repudiation, Key Encipherment
            X509v3 Subject Key Identifier: 
                54:11:7C:09:55:44:1C:94:45:A9:A2:76:46:2B:2C:24:26:6A:44:E8
    Signature Algorithm: sha1WithRSAEncryption
        94:40:6d:a8:48:57:93:52:9c:21:59:96:4f:41:cd:8f:ff:b7:
        ff:f1:20:b6:c7:ed:4c:3c:cc:15:82:4c:a2:13:27:39:e4:d2:
        20:89:72:f0:f6:b5:24:05:ed:a2:31:d4:c6:22:b5:7e:d8:7d:
        21:a0:cf:8d:49:88:6c:a8:03:24:44:eb:96:33:4f:a8:9b:6b:
        b2:10:3a:d7:48:2d:64:cb:a6:24:a6:9f:b3:7c:6f:9e:53:23:
        a1:48:69:a1:a6:f2:3a:0e:1e:af:5b:33:6e:e3:03:27:0e:d5:
        7a:85:9c:d6:80:bb:e3:cf:34:21:4f:df:6b:83:67:3e:73:5d:
        46:8e
-----BEGIN CERTIFICATE-----
MIIDOzCCAqSgAwIBAgICC4MwDQYJKoZIhvcNAQEFBQAwezELMAkGA1UEBhMCVVMx
FjAUBgNVBAgTDU1hc3NhY2h1c2V0dHMxLjAsBgNVBAoTJU1hc3NhY2h1c2V0dHMg
SW5zdGl0dXRlIG9mIFRlY2hub2xvZ3kxJDAiBgNVBAsTG01JVCBDZXJ0aWZpY2F0
aW9uIEF1dGhvcml0eTAeFw0wODA4MjcxNjAwMDBaFw0wOTA4MjcxNjAwMDBaMIHT
MQswCQYDVQQGEwJVUzEWMBQGA1UECBMNTWFzc2FjaHVzZXR0czESMBAGA1UEBxMJ
Q2FtYnJpZGdlMS4wLAYDVQQKEyVNYXNzYWNodXNldHRzIEluc3RpdHV0ZSBvZiBU
ZWNobm9sb2d5MS0wKwYDVQQLEyRTdHVkZW50IEluZm9ybWF0aW9uIFByb2Nlc3Np
bmcgQm9hcmQxGTAXBgNVBAMTEHdlc3RnYXRlLm1pdC5lZHUxHjAcBgkqhkiG9w0B
CQEWD3NjcmlwdHNAbWl0LmVkdTCBnzANBgkqhkiG9w0BAQEFAAOBjQAwgYkCgYEA
tT4hTcGJawGMR4D+szcndvhSQeaiPUt2eOXyZjwPsa37l48uorZT07YO4mb5uQu3
zrTV9RwfbyJ9SPVt8BbNjkh50RRKFC8v+MS9HYfPfYtcd61YJLAOoW3WCsfYvC9n
Zchd2NgxwmdLSvShpVSCr8s0CCoEf458TLfb3GqKXYECAwEAAaN1MHMwCQYDVR0T
BAIwADARBglghkgBhvhCAQEEBAMCBeAwJwYDVR0lBCAwHgYIKwYBBQUHAwEGCCsG
AQUFBwMEBggrBgEFBQcDAjALBgNVHQ8EBAMCBeAwHQYDVR0OBBYEFFQRfAlVRByU
RamidkYrLCQmakToMA0GCSqGSIb3DQEBBQUAA4GBAJRAbahIV5NSnCFZlk9BzY//
t//xILbH7Uw8zBWCTKITJznk0iCJcvD2tSQF7aIx1MYitX7YfSGgz41JiGyoAyRE
65YzT6iba7IQOtdILWTLpiSmn7N8b55TI6FIaaGm8joOHq9bM27jAycO1XqFnNaA
u+PPNCFP32uDZz5zXUaO
-----END CERTIFICATE-----

