From mitcert@MIT.EDU Tue Nov 18 11:41:37 2008
Date: Tue, 18 Nov 2008 11:41:31 -0500 (EST)
From: mitcert@MIT.EDU
To: geofft@mit.edu
Subject: CSR for scripts virtual host: whatsnext.mit.edu  [help.mit.edu #754407]

Certificate:
    Data:
        Version: 3 (0x2)
        Serial Number: 3117 (0xc2d)
        Signature Algorithm: sha1WithRSAEncryption
        Issuer: C=US, ST=Massachusetts, O=Massachusetts Institute of Technology, OU=MIT Certification Authority
        Validity
            Not Before: Nov 16 17:00:00 2008 GMT
            Not After : Nov 16 17:00:00 2009 GMT
        Subject: C=US, ST=Massachusetts, L=Cambridge, O=Massachusetts Institute of Technology, OU=Student Information Processing Board, CN=whatsnext.mit.edu/Email=scripts@mit.edu
        Subject Public Key Info:
            Public Key Algorithm: rsaEncryption
            RSA Public Key: (1024 bit)
                Modulus (1024 bit):
                    00:b5:3e:21:4d:c1:89:6b:01:8c:47:80:fe:b3:37:
                    27:76:f8:52:41:e6:a2:3d:4b:76:78:e5:f2:66:3c:
                    0f:b1:ad:fb:97:8f:2e:a2:b6:53:d3:b6:0e:e2:66:
                    f9:b9:0b:b7:ce:b4:d5:f5:1c:1f:6f:22:7d:48:f5:
                    6d:f0:16:cd:8e:48:79:d1:14:4a:14:2f:2f:f8:c4:
                    bd:1d:87:cf:7d:8b:5c:77:ad:58:24:b0:0e:a1:6d:
                    d6:0a:c7:d8:bc:2f:67:65:c8:5d:d8:d8:31:c2:67:
                    4b:4a:f4:a1:a5:54:82:af:cb:34:08:2a:04:7f:8e:
                    7c:4c:b7:db:dc:6a:8a:5d:81
                Exponent: 65537 (0x10001)
        X509v3 extensions:
            X509v3 Basic Constraints: 
                CA:FALSE
            Netscape Cert Type: 
                SSL Client, SSL Server, S/MIME
            X509v3 Extended Key Usage: 
                TLS Web Server Authentication, E-mail Protection, TLS Web Client Authentication
            X509v3 Key Usage: 
                Digital Signature, Non Repudiation, Key Encipherment
            X509v3 Subject Key Identifier: 
                54:11:7C:09:55:44:1C:94:45:A9:A2:76:46:2B:2C:24:26:6A:44:E8
    Signature Algorithm: sha1WithRSAEncryption
        0d:ee:fc:2e:de:37:4d:e6:d4:67:fa:14:fe:71:54:7c:61:87:
        6e:8e:16:63:11:b7:83:db:02:c7:b8:38:8b:a8:66:7a:1e:d3:
        2c:98:6c:db:d9:0b:f7:b8:52:52:d8:8f:43:af:db:e4:44:01:
        bc:2d:61:31:e5:81:64:e2:8a:70:ba:34:ff:4f:3b:67:26:de:
        7b:37:b4:4d:bb:91:9e:4a:69:c7:e9:35:2b:b4:c9:fc:15:bf:
        29:ed:0f:ea:3e:7d:7d:12:82:44:12:1a:3f:7f:71:15:2e:1d:
        f0:3a:15:f7:ec:8c:74:ea:aa:d9:10:82:76:4e:f6:6a:6c:8b:
        8e:bc
-----BEGIN CERTIFICATE-----
MIIDPDCCAqWgAwIBAgICDC0wDQYJKoZIhvcNAQEFBQAwezELMAkGA1UEBhMCVVMx
FjAUBgNVBAgTDU1hc3NhY2h1c2V0dHMxLjAsBgNVBAoTJU1hc3NhY2h1c2V0dHMg
SW5zdGl0dXRlIG9mIFRlY2hub2xvZ3kxJDAiBgNVBAsTG01JVCBDZXJ0aWZpY2F0
aW9uIEF1dGhvcml0eTAeFw0wODExMTYxNzAwMDBaFw0wOTExMTYxNzAwMDBaMIHU
MQswCQYDVQQGEwJVUzEWMBQGA1UECBMNTWFzc2FjaHVzZXR0czESMBAGA1UEBxMJ
Q2FtYnJpZGdlMS4wLAYDVQQKEyVNYXNzYWNodXNldHRzIEluc3RpdHV0ZSBvZiBU
ZWNobm9sb2d5MS0wKwYDVQQLEyRTdHVkZW50IEluZm9ybWF0aW9uIFByb2Nlc3Np
bmcgQm9hcmQxGjAYBgNVBAMTEXdoYXRzbmV4dC5taXQuZWR1MR4wHAYJKoZIhvcN
AQkBFg9zY3JpcHRzQG1pdC5lZHUwgZ8wDQYJKoZIhvcNAQEBBQADgY0AMIGJAoGB
ALU+IU3BiWsBjEeA/rM3J3b4UkHmoj1Ldnjl8mY8D7Gt+5ePLqK2U9O2DuJm+bkL
t8601fUcH28ifUj1bfAWzY5IedEUShQvL/jEvR2Hz32LXHetWCSwDqFt1grH2Lwv
Z2XIXdjYMcJnS0r0oaVUgq/LNAgqBH+OfEy329xqil2BAgMBAAGjdTBzMAkGA1Ud
EwQCMAAwEQYJYIZIAYb4QgEBBAQDAgXgMCcGA1UdJQQgMB4GCCsGAQUFBwMBBggr
BgEFBQcDBAYIKwYBBQUHAwIwCwYDVR0PBAQDAgXgMB0GA1UdDgQWBBRUEXwJVUQc
lEWponZGKywkJmpE6DANBgkqhkiG9w0BAQUFAAOBgQAN7vwu3jdN5tRn+hT+cVR8
YYdujhZjEbeD2wLHuDiLqGZ6HtMsmGzb2Qv3uFJS2I9Dr9vkRAG8LWEx5YFk4opw
ujT/TztnJt57N7RNu5GeSmnH6TUrtMn8Fb8p7Q/qPn19EoJEEho/f3EVLh3wOhX3
7Ix06qrZEIJ2TvZqbIuOvA==
-----END CERTIFICATE-----

