From mitcert@MIT.EDU Thu Nov 18 11:59:11 2010
Date: Thu, 18 Nov 2010 11:59:10 -0500 (EST)
From: mitcert@MIT.EDU
To: mitchb@mit.edu
Subject: Certificate signing request for whatsnext.mit.edu  [help.mit.edu #1406648]

Certificate:
    Data:
        Version: 3 (0x2)
        Serial Number:
            f7:49:e0:b4:7e:2f:42:62:0e:a7:07:79:f7:52:eb:c7
        Signature Algorithm: sha1WithRSAEncryption
        Issuer: C=US, ST=Massachusetts, O=Massachusetts Institute of Technology, OU=MIT Certification Authority
        Validity
            Not Before: Nov 16 17:00:00 2010 GMT
            Not After : Nov 17 17:00:00 2011 GMT
        Subject: C=US, ST=Massachusetts, L=Cambridge, O=Massachusetts Institute of Technology, OU=scripts.mit.edu web hosting service, CN=whatsnext.mit.edu/emailAddress=scripts@mit.edu
        Subject Public Key Info:
            Public Key Algorithm: rsaEncryption
            RSA Public Key: (1024 bit)
                Modulus (1024 bit):
                    00:b5:3e:21:4d:c1:89:6b:01:8c:47:80:fe:b3:37:
                    27:76:f8:52:41:e6:a2:3d:4b:76:78:e5:f2:66:3c:
                    0f:b1:ad:fb:97:8f:2e:a2:b6:53:d3:b6:0e:e2:66:
                    f9:b9:0b:b7:ce:b4:d5:f5:1c:1f:6f:22:7d:48:f5:
                    6d:f0:16:cd:8e:48:79:d1:14:4a:14:2f:2f:f8:c4:
                    bd:1d:87:cf:7d:8b:5c:77:ad:58:24:b0:0e:a1:6d:
                    d6:0a:c7:d8:bc:2f:67:65:c8:5d:d8:d8:31:c2:67:
                    4b:4a:f4:a1:a5:54:82:af:cb:34:08:2a:04:7f:8e:
                    7c:4c:b7:db:dc:6a:8a:5d:81
                Exponent: 65537 (0x10001)
        X509v3 extensions:
            X509v3 Basic Constraints: 
                CA:FALSE
            Netscape Cert Type: 
                SSL Client, SSL Server, S/MIME
            X509v3 Extended Key Usage: 
                TLS Web Server Authentication, E-mail Protection, TLS Web Client Authentication
            X509v3 Key Usage: 
                Digital Signature, Non Repudiation, Key Encipherment
            X509v3 Subject Key Identifier: 
                54:11:7C:09:55:44:1C:94:45:A9:A2:76:46:2B:2C:24:26:6A:44:E8
            X509v3 CRL Distribution Points: 
                URI:http://ca.mit.edu/ca/mitserver.crl

    Signature Algorithm: sha1WithRSAEncryption
        47:c5:f0:86:46:28:9b:c4:ec:38:2f:a3:4b:5e:11:77:1e:1e:
        81:ec:82:3f:de:36:14:0f:bf:6e:5b:74:55:1c:b6:1b:b2:ae:
        77:ff:40:ae:22:43:d3:9e:f9:05:aa:ba:54:de:39:e4:fa:bb:
        e4:54:98:94:f8:b4:33:26:15:1a:1f:01:50:5b:8e:d2:ad:ff:
        74:69:98:f8:7b:b7:7c:92:aa:5a:51:bc:99:a8:4f:77:a8:0b:
        a5:93:03:8c:32:12:66:f5:9a:8b:c2:47:6e:b4:8b:e9:f9:ad:
        3f:0a:8b:02:78:b7:45:d1:16:03:2c:65:7b:f4:83:2e:97:a0:
        fb:9a
-----BEGIN CERTIFICATE-----
MIIDgTCCAuqgAwIBAgIRAPdJ4LR+L0JiDqcHefdS68cwDQYJKoZIhvcNAQEFBQAw
ezELMAkGA1UEBhMCVVMxFjAUBgNVBAgTDU1hc3NhY2h1c2V0dHMxLjAsBgNVBAoT
JU1hc3NhY2h1c2V0dHMgSW5zdGl0dXRlIG9mIFRlY2hub2xvZ3kxJDAiBgNVBAsT
G01JVCBDZXJ0aWZpY2F0aW9uIEF1dGhvcml0eTAeFw0xMDExMTYxNzAwMDBaFw0x
MTExMTcxNzAwMDBaMIHTMQswCQYDVQQGEwJVUzEWMBQGA1UECBMNTWFzc2FjaHVz
ZXR0czESMBAGA1UEBxMJQ2FtYnJpZGdlMS4wLAYDVQQKEyVNYXNzYWNodXNldHRz
IEluc3RpdHV0ZSBvZiBUZWNobm9sb2d5MSwwKgYDVQQLEyNzY3JpcHRzLm1pdC5l
ZHUgd2ViIGhvc3Rpbmcgc2VydmljZTEaMBgGA1UEAxMRd2hhdHNuZXh0Lm1pdC5l
ZHUxHjAcBgkqhkiG9w0BCQEWD3NjcmlwdHNAbWl0LmVkdTCBnzANBgkqhkiG9w0B
AQEFAAOBjQAwgYkCgYEAtT4hTcGJawGMR4D+szcndvhSQeaiPUt2eOXyZjwPsa37
l48uorZT07YO4mb5uQu3zrTV9RwfbyJ9SPVt8BbNjkh50RRKFC8v+MS9HYfPfYtc
d61YJLAOoW3WCsfYvC9nZchd2NgxwmdLSvShpVSCr8s0CCoEf458TLfb3GqKXYEC
AwEAAaOBqzCBqDAJBgNVHRMEAjAAMBEGCWCGSAGG+EIBAQQEAwIF4DAnBgNVHSUE
IDAeBggrBgEFBQcDAQYIKwYBBQUHAwQGCCsGAQUFBwMCMAsGA1UdDwQEAwIF4DAd
BgNVHQ4EFgQUVBF8CVVEHJRFqaJ2RissJCZqROgwMwYDVR0fBCwwKjAooCagJIYi
aHR0cDovL2NhLm1pdC5lZHUvY2EvbWl0c2VydmVyLmNybDANBgkqhkiG9w0BAQUF
AAOBgQBHxfCGRiibxOw4L6NLXhF3Hh6B7II/3jYUD79uW3RVHLYbsq53/0CuIkPT
nvkFqrpU3jnk+rvkVJiU+LQzJhUaHwFQW47Srf90aZj4e7d8kqpaUbyZqE93qAul
kwOMMhJm9ZqLwkdutIvp+a0/CosCeLdF0RYDLGV79IMul6D7mg==
-----END CERTIFICATE-----

